(lp0
(dp1
S'name'
p2
VJose
p3
sS'info_link'
p4
S'http://www.tdcj.state.tx.us/death_row/dr_info/villegasjose.html'
p5
sS'no'
p6
I999417
sS'age'
p7
I39
sS'county'
p8
VNueces
p9
sS'race'
p10
VHispanic
p11
sS'lp'
p12
I515
sS'date'
p13
cdatetime
datetime
p14
(S'\x07\xde\x04\x10\x00\x00\x00\x00\x00\x00'
p15
tp16
Rp17
sS'surename'
p18
VVillegas
p19
sS'stm_link'
p20
S'http://www.tdcj.state.tx.us/death_row/dr_info/villegasjoselast.html'
p21
sa(dp22
g2
VRamiro
p23
sg4
S'http://www.tdcj.state.tx.us/death_row/dr_info/hernandezramiro.html'
p24
sg6
I999342
sg7
I44
sg8
VKerr
p25
sg10
VHispanic
p26
sg12
I514
sg13
g14
(S'\x07\xde\x04\t\x00\x00\x00\x00\x00\x00'
p27
tp28
Rp29
sg18
VHernandez
p30
sg20
S'http://www.tdcj.state.tx.us/death_row/dr_info/hernandezramirolast.html'
p31
sa(dp32
g2
VTommy
p33
sg4
S'http://www.tdcj.state.tx.us/death_row/dr_info/sellstommy.html'
p34
sg6
I999367
sg7
I49
sg8
VValVerde
p35
sg10
VWhite
p36
sg12
I513
sg13
g14
(S'\x07\xde\x04\x03\x00\x00\x00\x00\x00\x00'
p37
tp38
Rp39
sg18
VSells
p40
sg20
S'http://www.tdcj.state.tx.us/death_row/dr_info/sellstommylast.html'
p41
sa(dp42
g2
VAnthony
p43
sg4
S'http://www.tdcj.state.tx.us/death_row/dr_info/doyleanthony.html'
p44
sg6
I999478
sg7
I29
sg8
VDallas
p45
sg10
VBlack
p46
sg12
I512
sg13
g14
(S'\x07\xde\x03\x1b\x00\x00\x00\x00\x00\x00'
p47
tp48
Rp49
sg18
VDoyle
p50
sg20
S'http://www.tdcj.state.tx.us/death_row/dr_info/doyleanthonylast.html'
p51
sa(dp52
g2
VRay
p53
sg4
S'http://www.tdcj.state.tx.us/death_row/dr_info/jasperray.html'
p54
sg6
I999341
sg7
I33
sg8
VBexar
p55
sg10
VBlack
p56
sg12
I511
sg13
g14
(S'\x07\xde\x03\x13\x00\x00\x00\x00\x00\x00'
p57
tp58
Rp59
sg18
VJasper
p60
sg20
S'http://www.tdcj.state.tx.us/death_row/dr_info/jasperraylast.html'
p61
sa(dp62
g2
VSuzanne
p63
sg4
S'http://www.tdcj.state.tx.us/death_row/dr_info/bassosuzanne.html'
p64
sg6
I999329
sg7
I59
sg8
VHarris
p65
sg10
VWhite
p66
sg12
I510
sg13
g14
(S'\x07\xde\x02\x05\x00\x00\x00\x00\x00\x00'
p67
tp68
Rp69
sg18
VBasso
p70
sg20
S'http://www.tdcj.state.tx.us/death_row/dr_info/bassosuzannelast.html'
p71
sa(dp72
g2
VEdgar
p73
sg4
S'http://www.tdcj.state.tx.us/death_row/dr_info/tamayoedgar.jpg'
p74
sg6
I999130
sg7
I46
sg8
VHarris
p75
sg10
VHispanic
p76
sg12
I509
sg13
g14
(S'\x07\xde\x01\x16\x00\x00\x00\x00\x00\x00'
p77
tp78
Rp79
sg18
VTamayo
p80
sg20
S'http://www.tdcj.state.tx.us/death_row/dr_info/tamayoedgarlast.html'
p81
sa(dp82
g2
VJerry
p83
sg4
S'http://www.tdcj.state.tx.us/death_row/dr_info/martinjerry.html'
p84
sg6
I999552
sg7
I43
sg8
VLeon
p85
sg10
VWhite
p86
sg12
I508
sg13
g14
(S'\x07\xdd\x0c\x03\x00\x00\x00\x00\x00\x00'
p87
tp88
Rp89
sg18
VMartin
p90
sg20
S'http://www.tdcj.state.tx.us/death_row/dr_info/martinjerrylast.html'
p91
sa(dp92
g2
VJamie
p93
sg4
S'http://www.tdcj.state.tx.us/death_row/dr_info/mccoskeyjamie.jpg'
p94
sg6
I999053
sg7
I49
sg8
VHarris
p95
sg10
VWhite
p96
sg12
I507
sg13
g14
(S'\x07\xdd\x0b\x0c\x00\x00\x00\x00\x00\x00'
p97
tp98
Rp99
sg18
VMcCoskey
p100
sg20
S'http://www.tdcj.state.tx.us/death_row/dr_info/mccoskeyjamielast.html'
p101
sa(dp102
g2
VMichael
p103
sg4
S'http://www.tdcj.state.tx.us/death_row/dr_info/yowellmichael.html'
p104
sg6
I999334
sg7
I43
sg8
VLubbock
p105
sg10
VWhite
p106
sg12
I506
sg13
g14
(S'\x07\xdd\n\t\x00\x00\x00\x00\x00\x00'
p107
tp108
Rp109
sg18
VYowell
p110
sg20
S'http://www.tdcj.state.tx.us/death_row/dr_info/yowellmichaellast.html'
p111
sa(dp112
g2
VArturo
p113
sg4
S'http://www.tdcj.state.tx.us/death_row/dr_info/diazarturo.html'
p114
sg6
I999345
sg7
I37
sg8
VHidalgo
p115
sg10
VHispanic
p116
sg12
I505
sg13
g14
(S'\x07\xdd\t\x1a\x00\x00\x00\x00\x00\x00'
p117
tp118
Rp119
sg18
VDiaz
p120
sg20
S'http://www.tdcj.state.tx.us/death_row/dr_info/diazarturolast.html'
p121
sa(dp122
g2
VRobert
p123
sg4
S'http://www.tdcj.state.tx.us/death_row/dr_info/garzarobert.html'
p124
sg6
I999466
sg7
I30
sg8
VHidalgo
p125
sg10
VHispanic
p126
sg12
I504
sg13
g14
(S'\x07\xdd\t\x13\x00\x00\x00\x00\x00\x00'
p127
tp128
Rp129
sg18
VGarza
p130
sg20
S'http://www.tdcj.state.tx.us/death_row/dr_info/garzarobertlast.html'
p131
sa(dp132
g2
VDouglas
p133
sg4
S'http://www.tdcj.state.tx.us/death_row/dr_info/feldmandouglas.html'
p134
sg6
I999326
sg7
I55
sg8
VDallas
p135
sg10
VWhite
p136
sg12
I503
sg13
g14
(S'\x07\xdd\x07\x1f\x00\x00\x00\x00\x00\x00'
p137
tp138
Rp139
sg18
VFeldman
p140
sg20
S'http://www.tdcj.state.tx.us/death_row/dr_info/feldmandouglaslast.html'
p141
sa(dp142
g2
VVaughn
p143
sg4
S'http://www.tdcj.state.tx.us/death_row/dr_info/rossvaughn.html'
p144
sg6
I999429
sg7
I41
sg8
VLubbock
p145
sg10
VBlack
p146
sg12
I502
sg13
g14
(S'\x07\xdd\x07\x12\x00\x00\x00\x00\x00\x00'
p147
tp148
Rp149
sg18
VRoss
p150
sg20
S'http://www.tdcj.state.tx.us/death_row/dr_info/rossvaughnlast.html'
p151
sa(dp152
g2
VJohn
p153
sg4
S'http://www.tdcj.state.tx.us/death_row/dr_info/quintanillajohn.html'
p154
sg6
I999491
sg7
I36
sg8
VVictoria
p155
sg10
VHispanic
p156
sg12
I501
sg13
g14
(S'\x07\xdd\x07\x10\x00\x00\x00\x00\x00\x00'
p157
tp158
Rp159
sg18
VQuintanilla
p160
sg20
S'http://www.tdcj.state.tx.us/death_row/dr_info/quintanillajohnlast.html'
p161
sa(dp162
g2
VKimberly
p163
sg4
S'http://www.tdcj.state.tx.us/death_row/dr_info/mccarthykimberly.html'
p164
sg6
I999287
sg7
I52
sg8
VDallas
p165
sg10
VBlack
p166
sg12
I500
sg13
g14
(S'\x07\xdd\x06\x1a\x00\x00\x00\x00\x00\x00'
p167
tp168
Rp169
sg18
VMcCarthy
p170
sg20
S'http://www.tdcj.state.tx.us/death_row/dr_info/mccarthykimberlylast.html'
p171
sa(dp172
g2
VElroy
p173
sg4
S'http://www.tdcj.state.tx.us/death_row/dr_info/chesterelroy.html'
p174
sg6
I999280
sg7
I43
sg8
VJefferson
p175
sg10
VBlack
p176
sg12
I499
sg13
g14
(S'\x07\xdd\x06\x0c\x00\x00\x00\x00\x00\x00'
p177
tp178
Rp179
sg18
VChester
p180
sg20
S'http://www.tdcj.state.tx.us/death_row/dr_info/chesterelroylast.html'
p181
sa(dp182
g2
VJeffrey
p183
sg4
S'http://www.tdcj.state.tx.us/death_row/dr_info/williamsjeffery.html'
p184
sg6
I999350
sg7
I37
sg8
VHarris
p185
sg10
VBlack
p186
sg12
I498
sg13
g14
(S'\x07\xdd\x05\x0f\x00\x00\x00\x00\x00\x00'
p187
tp188
Rp189
sg18
VWilliams
p190
sg20
S'http://www.tdcj.state.tx.us/death_row/dr_info/williamsjeffrey999350last.html'
p191
sa(dp192
g2
VCarroll
p193
sg4
S'http://www.tdcj.state.tx.us/death_row/dr_info/parrcarroll.html'
p194
sg6
I999479
sg7
I35
sg8
VMcLennan
p195
sg10
VBlack
p196
sg12
I497
sg13
g14
(S'\x07\xdd\x05\x07\x00\x00\x00\x00\x00\x00'
p197
tp198
Rp199
sg18
VParr
p200
sg20
S'http://www.tdcj.state.tx.us/death_row/dr_info/parrcarrolllast.html'
p201
sa(dp202
g2
VRichard
p203
sg4
S'http://www.tdcj.state.tx.us/death_row/dr_info/cobbrichard.html'
p204
sg6
I999467
sg7
I29
sg8
VCherokee
p205
sg10
VWhite
p206
sg12
I496
sg13
g14
(S'\x07\xdd\x04\x1a\x00\x00\x00\x00\x00\x00'
p207
tp208
Rp209
sg18
VCobb
p210
sg20
S'http://www.tdcj.state.tx.us/death_row/dr_info/cobbrichardlast.html'
p211
sa(dp212
g2
VRonnie
p213
sg4
S'http://www.tdcj.state.tx.us/death_row/dr_info/threadgillronnie.html'
p214
sg6
I999424
sg7
I40
sg8
VNavarro
p215
sg10
VBlack
p216
sg12
I495
sg13
g14
(S'\x07\xdd\x04\x10\x00\x00\x00\x00\x00\x00'
p217
tp218
Rp219
sg18
VThreadgill
p220
sg20
S'http://www.tdcj.state.tx.us/death_row/dr_info/threadgillronnielast.html'
p221
sa(dp222
g2
VRicky
p223
sg4
S'http://www.tdcj.state.tx.us/death_row/dr_info/lewisricky.jpg'
p224
sg6
I999097
sg7
I50
sg8
VSmith
p225
sg10
VBlack
p226
sg12
I494
sg13
g14
(S'\x07\xdd\x04\t\x00\x00\x00\x00\x00\x00'
p227
tp228
Rp229
sg18
VLewis
p230
sg20
S'http://www.tdcj.state.tx.us/death_row/dr_info/lewisrickylast.html'
p231
sa(dp232
g2
VCarl
p233
sg4
S'http://www.tdcj.state.tx.us/death_row/dr_info/bluecarl.jpg'
p234
sg6
I999151
sg7
I48
sg8
VBrazos
p235
sg10
VBlack
p236
sg12
I493
sg13
g14
(S'\x07\xdd\x02\x15\x00\x00\x00\x00\x00\x00'
p237
tp238
Rp239
sg18
VBlue
p240
sg20
S'http://www.tdcj.state.tx.us/death_row/dr_info/bluecarllast.html'
p241
sa(dp242
g2
VPreston
p243
sg4
S'http://www.tdcj.state.tx.us/death_row/dr_info/hughesprestoni.jpg'
p244
sg6
I939
sg7
I46
sg8
VHarris
p245
sg10
VBlack
p246
sg12
I492
sg13
g14
(S'\x07\xdc\x0b\x0f\x00\x00\x00\x00\x00\x00'
p247
tp248
Rp249
sg18
VHughes
p250
sg20
S'http://www.tdcj.state.tx.us/death_row/dr_info/hughesprestonlast.html'
p251
sa(dp252
g2
VRamon
p253
sg4
S'http://www.tdcj.state.tx.us/death_row/dr_info/hernandezramon.html'
p254
sg6
I999431
sg7
I41
sg8
VBexar
p255
sg10
VHispanic
p256
sg12
I491
sg13
g14
(S'\x07\xdc\x0b\x0e\x00\x00\x00\x00\x00\x00'
p257
tp258
Rp259
sg18
VHernandez
p260
sg20
S'http://www.tdcj.state.tx.us/death_row/dr_info/hernandezramontorreslast.html'
p261
sa(dp262
g2
VMario
p263
sg4
S'http://www.tdcj.state.tx.us/death_row/dr_info/swainmario.html'
p264
sg6
I999475
sg7
I33
sg8
VGregg
p265
sg10
VBlack
p266
sg12
I490
sg13
g14
(S'\x07\xdc\x0b\x08\x00\x00\x00\x00\x00\x00'
p267
tp268
Rp269
sg18
VSwain
p270
sg20
S'http://www.tdcj.state.tx.us/death_row/dr_info/swainmariolast.html'
p271
sa(dp272
g2
VDonnie
p273
sg4
S'http://www.tdcj.state.tx.us/death_row/dr_info/robertsdonnie.html'
p274
sg6
I999487
sg7
I41
sg8
VPolk
p275
sg10
VWhite
p276
sg12
I489
sg13
g14
(S'\x07\xdc\n\x1f\x00\x00\x00\x00\x00\x00'
p277
tp278
Rp279
sg18
VRoberts, Jr.
p280
sg20
S'http://www.tdcj.state.tx.us/death_row/dr_info/robertsdonnielast.html'
p281
sa(dp282
g2
VBobby
p283
sg4
S'http://www.tdcj.state.tx.us/death_row/dr_info/hinesbobby.jpg'
p284
sg6
I999025
sg7
I40
sg8
VDallas
p285
sg10
VWhite
p286
sg12
I488
sg13
g14
(S'\x07\xdc\n\x18\x00\x00\x00\x00\x00\x00'
p287
tp288
Rp289
sg18
VHines
p290
sg20
S'http://www.tdcj.state.tx.us/death_row/dr_info/hinesbobbylast.html'
p291
sa(dp292
g2
VJonathan
p293
sg4
S'http://www.tdcj.state.tx.us/death_row/dr_info/greenjonathon.html'
p294
sg6
I999421
sg7
I44
sg8
VMontgomery
p295
sg10
VBlack
p296
sg12
I487
sg13
g14
(S'\x07\xdc\n\n\x00\x00\x00\x00\x00\x00'
p297
tp298
Rp299
sg18
VGreen
p300
sg20
S'http://www.tdcj.state.tx.us/death_row/dr_info/greenjonathanlast.html'
p301
sa(dp302
g2
VCleve
p303
sg4
S'http://www.tdcj.state.tx.us/death_row/dr_info/fostercleve.html'
p304
sg6
I999470
sg7
I48
sg8
VTarrant
p305
sg10
VWhite
p306
sg12
I486
sg13
g14
(S'\x07\xdc\t\x19\x00\x00\x00\x00\x00\x00'
p307
tp308
Rp309
sg18
VFoster
p310
sg20
S'http://www.tdcj.state.tx.us/death_row/dr_info/fosterclevelast.html'
p311
sa(dp312
g2
VRobert
p313
sg4
S'http://www.tdcj.state.tx.us/death_row/dr_info/harrisrobert.html'
p314
sg6
I999364
sg7
I40
sg8
VDallas
p315
sg10
VBlack
p316
sg12
I485
sg13
g14
(S'\x07\xdc\t\x14\x00\x00\x00\x00\x00\x00'
p317
tp318
Rp319
sg18
VHarris
p320
sg20
S'http://www.tdcj.state.tx.us/death_row/dr_info/harrisrobertlast.html'
p321
sa(dp322
g2
VMarvin
p323
sg4
S'http://www.tdcj.state.tx.us/death_row/dr_info/wilsonmarvin.jpg'
p324
sg6
I999098
sg7
I54
sg8
VJefferson
p325
sg10
VBlack
p326
sg12
I484
sg13
g14
(S'\x07\xdc\x08\x07\x00\x00\x00\x00\x00\x00'
p327
tp328
Rp329
sg18
VWilson
p330
sg20
S'http://www.tdcj.state.tx.us/death_row/dr_info/wilsonmarvinlast.html'
p331
sa(dp332
g2
VYokamon
p333
sg4
S'http://www.tdcj.state.tx.us/death_row/dr_info/hearnyokamon.html'
p334
sg6
I999292
sg7
I33
sg8
VDallas
p335
sg10
VBlack
p336
sg12
I483
sg13
g14
(S'\x07\xdc\x07\x12\x00\x00\x00\x00\x00\x00'
p337
tp338
Rp339
sg18
VHearn
p340
sg20
S'http://www.tdcj.state.tx.us/death_row/dr_info/hearnyokamonlast.html'
p341
sa(dp342
g2
VBeunka
p343
sg4
S'http://www.tdcj.state.tx.us/death_row/dr_info/adamsbeunka.html'
p344
sg6
I999486
sg7
I29
sg8
VCherokee
p345
sg10
VBlack
p346
sg12
I482
sg13
g14
(S'\x07\xdc\x04\x1a\x00\x00\x00\x00\x00\x00'
p347
tp348
Rp349
sg18
VAdams
p350
sg20
S'http://www.tdcj.state.tx.us/death_row/dr_info/adamsbeunkalast.html'
p351
sa(dp352
g2
VJesse
p353
sg4
S'http://www.tdcj.state.tx.us/death_row/dr_info/hernandezjesse.html'
p354
sg6
I999425
sg7
I47
sg8
VDallas
p355
sg10
VHispanic
p356
sg12
I481
sg13
g14
(S'\x07\xdc\x03\x1c\x00\x00\x00\x00\x00\x00'
p357
tp358
Rp359
sg18
VHernandez
p360
sg20
S'http://www.tdcj.state.tx.us/death_row/dr_info/hernandezjesselast.html'
p361
sa(dp362
g2
VKeith
p363
sg4
S'http://www.tdcj.state.tx.us/death_row/dr_info/thurmondkeith.html'
p364
sg6
I999435
sg7
I52
sg8
VMontgomery
p365
sg10
VWhite
p366
sg12
I480
sg13
g14
(S'\x07\xdc\x03\x07\x00\x00\x00\x00\x00\x00'
p367
tp368
Rp369
sg18
VThurmond
p370
sg20
S'http://www.tdcj.state.tx.us/death_row/dr_info/thurmondkeithlast.html'
p371
sa(dp372
g2
VGeorge
p373
sg4
S'http://www.tdcj.state.tx.us/death_row/dr_info/rivasgeorge.html'
p374
sg6
I999394
sg7
I41
sg8
VDallas
p375
sg10
VHispanic
p376
sg12
I479
sg13
g14
(S'\x07\xdc\x02\x1d\x00\x00\x00\x00\x00\x00'
p377
tp378
Rp379
sg18
VRivas
p380
sg20
S'http://www.tdcj.state.tx.us/death_row/dr_info/rivasgeorgelast.html'
p381
sa(dp382
g2
VRodrigo
p383
sg4
S'http://www.tdcj.state.tx.us/death_row/dr_info/hernandezrodrigo.html'
p384
sg6
I999474
sg7
I38
sg8
VBexar
p385
sg10
VHispanic
p386
sg12
I478
sg13
g14
(S'\x07\xdc\x01\x1a\x00\x00\x00\x00\x00\x00'
p387
tp388
Rp389
sg18
VHernandez
p390
sg20
S'http://www.tdcj.state.tx.us/death_row/dr_info/hernandezrodrigolast.html'
p391
sa(dp392
g2
VGuadalupe
p393
sg4
S'http://www.tdcj.state.tx.us/death_row/dr_info/esparzaguadalupe.html'
p394
sg6
I999385
sg7
I46
sg8
VBexar
p395
sg10
VHispanic
p396
sg12
I477
sg13
g14
(S'\x07\xdb\x0b\x10\x00\x00\x00\x00\x00\x00'
p397
tp398
Rp399
sg18
VEsparza
p400
sg20
S'http://www.tdcj.state.tx.us/death_row/dr_info/esparzaguadalupelast.html'
p401
sa(dp402
g2
VFrank
p403
sg4
S'http://www.tdcj.state.tx.us/death_row/dr_info/garciafrank.html'
p404
sg6
I999418
sg7
I39
sg8
VBexar
p405
sg10
VHispanic
p406
sg12
I476
sg13
g14
(S'\x07\xdb\n\x1b\x00\x00\x00\x00\x00\x00'
p407
tp408
Rp409
sg18
VGarcia
p410
sg20
S'http://www.tdcj.state.tx.us/death_row/dr_info/garciafrankmlast.html'
p411
sa(dp412
g2
VLawrence
p413
sg4
S'http://www.tdcj.state.tx.us/death_row/dr_info/brewerlawrence.html'
p414
sg6
I999327
sg7
I44
sg8
VBrazos
p415
sg10
VWhite
p416
sg12
I475
sg13
g14
(S'\x07\xdb\t\x15\x00\x00\x00\x00\x00\x00'
p417
tp418
Rp419
sg18
VBrewer
p420
sg20
S'http://www.tdcj.state.tx.us/death_row/dr_info/brewerlawrencelast.html'
p421
sa(dp422
g2
VSteven
p423
sg4
S'http://www.tdcj.state.tx.us/death_row/dr_info/woodssteven.html'
p424
sg6
I999427
sg7
I31
sg8
VDenton
p425
sg10
VWhite
p426
sg12
I474
sg13
g14
(S'\x07\xdb\t\r\x00\x00\x00\x00\x00\x00'
p427
tp428
Rp429
sg18
VWoods
p430
sg20
S'http://www.tdcj.state.tx.us/death_row/dr_info/woodsstevenlast.html'
p431
sa(dp432
g2
VMartin
p433
sg4
S'http://www.tdcj.state.tx.us/death_row/dr_info/roblesmartin.html'
p434
sg6
I999457
sg7
I33
sg8
VNueces
p435
sg10
VHispanic
p436
sg12
I473
sg13
g14
(S'\x07\xdb\x08\n\x00\x00\x00\x00\x00\x00'
p437
tp438
Rp439
sg18
VRobles
p440
sg20
S'http://www.tdcj.state.tx.us/death_row/dr_info/roblesmartinlast.html'
p441
sa(dp442
g2
VMark
p443
sg4
S'http://www.tdcj.state.tx.us/death_row/dr_info/stromanmark.html'
p444
sg6
I999409
sg7
I42
sg8
VDallas
p445
sg10
VWhite
p446
sg12
I472
sg13
g14
(S'\x07\xdb\x07\x14\x00\x00\x00\x00\x00\x00'
p447
tp448
Rp449
sg18
VStroman
p450
sg20
S'http://www.tdcj.state.tx.us/death_row/dr_info/stromanmarklast.html'
p451
sa(dp452
g2
VHumberto
p453
sg4
S'http://www.tdcj.state.tx.us/death_row/dr_info/lealhumberto.jpg'
p454
sg6
I999162
sg7
I38
sg8
VBexar
p455
sg10
VHispanic
p456
sg12
I471
sg13
g14
(S'\x07\xdb\x07\x07\x00\x00\x00\x00\x00\x00'
p457
tp458
Rp459
sg18
VLeal
p460
sg20
S'http://www.tdcj.state.tx.us/death_row/dr_info/lealhumbertolast.html'
p461
sa(dp462
g2
VMilton
p463
sg4
S'http://www.tdcj.state.tx.us/death_row/dr_info/mathismilton.html'
p464
sg6
I999337
sg7
I32
sg8
VFort Bend
p465
sg10
VBlack
p466
sg12
I470
sg13
g14
(S'\x07\xdb\x06\x15\x00\x00\x00\x00\x00\x00'
p467
tp468
Rp469
sg18
VMathis
p470
sg20
S'http://www.tdcj.state.tx.us/death_row/dr_info/mathismiltonlast.html'
p471
sa(dp472
g2
VLee
p473
sg4
S'http://www.tdcj.state.tx.us/death_row/dr_info/taylorlee.html'
p474
sg6
I999344
sg7
I32
sg8
VBowie
p475
sg10
VWhite
p476
sg12
I469
sg13
g14
(S'\x07\xdb\x06\x10\x00\x00\x00\x00\x00\x00'
p477
tp478
Rp479
sg18
VTaylor
p480
sg20
S'http://www.tdcj.state.tx.us/death_row/dr_info/taylorleelast.html'
p481
sa(dp482
g2
VGayland
p483
sg4
S'http://www.tdcj.state.tx.us/death_row/dr_info/bradfordgayland.jpg'
p484
sg6
I966
sg7
I42
sg8
VDallas
p485
sg10
VBlack
p486
sg12
I468
sg13
g14
(S'\x07\xdb\x06\x01\x00\x00\x00\x00\x00\x00'
p487
tp488
Rp489
sg18
VBradford
p490
sg20
S'http://www.tdcj.state.tx.us/death_row/dr_info/bradfordgaylandlast.html'
p491
sa(dp492
g2
VCary
p493
sg4
S'http://www.tdcj.state.tx.us/death_row/dr_info/kerrcary.html'
p494
sg6
I999449
sg7
I46
sg8
VTarrant
p495
sg10
VWhite
p496
sg12
I467
sg13
g14
(S'\x07\xdb\x05\x03\x00\x00\x00\x00\x00\x00'
p497
tp498
Rp499
sg18
VKerr
p500
sg20
S'http://www.tdcj.state.tx.us/death_row/dr_info/kerrcarylast.html'
p501
sa(dp502
g2
VTimothy
p503
sg4
S'http://www.tdcj.state.tx.us/death_row/dr_info/adamstimothy.html'
p504
sg6
I999448
sg7
I42
sg8
VHarris
p505
sg10
VBlack
p506
sg12
I466
sg13
g14
(S'\x07\xdb\x02\x16\x00\x00\x00\x00\x00\x00'
p507
tp508
Rp509
sg18
VAdams
p510
sg20
S'http://www.tdcj.state.tx.us/death_row/dr_info/no_last_statement.html'
p511
sa(dp512
g2
VMichael
p513
sg4
S'http://www.tdcj.state.tx.us/death_row/dr_info/hallmichael.html'
p514
sg6
I999346
sg7
I31
sg8
VTarrant
p515
sg10
VWhite
p516
sg12
I465
sg13
g14
(S'\x07\xdb\x02\x0f\x00\x00\x00\x00\x00\x00'
p517
tp518
Rp519
sg18
VHall
p520
sg20
S'http://www.tdcj.state.tx.us/death_row/dr_info/hallmichaellast.html'
p521
sa(dp522
g2
VLarry
p523
sg4
S'http://www.tdcj.state.tx.us/death_row/dr_info/wootenlarry.html'
p524
sg6
I999269
sg7
I51
sg8
VLamar
p525
sg10
VBlack
p526
sg12
I464
sg13
g14
(S'\x07\xda\n\x15\x00\x00\x00\x00\x00\x00'
p527
tp528
Rp529
sg18
VWooten
p530
sg20
S'http://www.tdcj.state.tx.us/death_row/dr_info/wootenlarrylast.html'
p531
sa(dp532
g2
VPeter
p533
sg4
S'http://www.tdcj.state.tx.us/death_row/dr_info/cantup.jpg'
p534
sg6
I999093
sg7
I35
sg8
VHarris
p535
sg10
VHispanic
p536
sg12
I463
sg13
g14
(S'\x07\xda\x08\x11\x00\x00\x00\x00\x00\x00'
p537
tp538
Rp539
sg18
VCantu
p540
sg20
S'http://www.tdcj.state.tx.us/death_row/dr_info/cantupeterlast.html'
p541
sa(dp542
g2
VDerrick
p543
sg4
S'http://www.tdcj.state.tx.us/death_row/dr_info/jacksonderrick.html'
p544
sg6
I999263
sg7
I42
sg8
VHarris
p545
sg10
VBlack
p546
sg12
I462
sg13
g14
(S'\x07\xda\x07\x14\x00\x00\x00\x00\x00\x00'
p547
tp548
Rp549
sg18
VJackson
p550
sg20
S'http://www.tdcj.state.tx.us/death_row/dr_info/jacksonderricklast.html'
p551
sa(dp552
g2
VMichael
p553
sg4
S'http://www.tdcj.state.tx.us/death_row/dr_info/perrymichael.html'
p554
sg6
I999444
sg7
I28
sg8
VMontgomery
p555
sg10
VWhite
p556
sg12
I461
sg13
g14
(S'\x07\xda\x07\x01\x00\x00\x00\x00\x00\x00'
p557
tp558
Rp559
sg18
VPerry
p560
sg20
S'http://www.tdcj.state.tx.us/death_row/dr_info/perrymichaellast.html'
p561
sa(dp562
g2
VDavid
p563
sg4
S'http://www.tdcj.state.tx.us/death_row/dr_info/powelldavid.jpg'
p564
sg6
I612
sg7
I59
sg8
VTravis
p565
sg10
VWhite
p566
sg12
I460
sg13
g14
(S'\x07\xda\x06\x0f\x00\x00\x00\x00\x00\x00'
p567
tp568
Rp569
sg18
VPowell
p570
sg20
S'http://www.tdcj.state.tx.us/death_row/dr_info/no_last_statement.html'
p571
sa(dp572
g2
VGeorge
p573
sg4
S'http://www.tdcj.state.tx.us/death_row/dr_info/jonesgeorgealarick.jpg'
p574
sg6
I999147
sg7
I36
sg8
VDallas
p575
sg10
VBlack
p576
sg12
I459
sg13
g14
(S'\x07\xda\x06\x02\x00\x00\x00\x00\x00\x00'
p577
tp578
Rp579
sg18
VJones
p580
sg20
S'http://www.tdcj.state.tx.us/death_row/dr_info/jonesgeorgelast.html'
p581
sa(dp582
g2
VJohn
p583
sg4
S'http://www.tdcj.state.tx.us/death_row/dr_info/albajohn.jpg'
p584
sg6
I999027
sg7
I54
sg8
VCollin
p585
sg10
VHispanic
p586
sg12
I458
sg13
g14
(S'\x07\xda\x05\x19\x00\x00\x00\x00\x00\x00'
p587
tp588
Rp589
sg18
VAlba
p590
sg20
S'http://www.tdcj.state.tx.us/death_row/dr_info/albajohnlast.html'
p591
sa(dp592
g2
VRogelio
p593
sg4
S'http://www.tdcj.state.tx.us/death_row/dr_info/cannadyrogelio.html'
p594
sg6
I999245
sg7
I37
sg8
VBee
p595
sg10
VHispanic
p596
sg12
I457
sg13
g14
(S'\x07\xda\x05\x13\x00\x00\x00\x00\x00\x00'
p597
tp598
Rp599
sg18
VCannady
p600
sg20
S'http://www.tdcj.state.tx.us/death_row/dr_info/cannadyrogeliolast.html'
p601
sa(dp602
g2
VBilly
p603
sg4
S'http://www.tdcj.state.tx.us/death_row/dr_info/gallowaybilly.html'
p604
sg6
I999349
sg7
I41
sg8
VHunt
p605
sg10
VWhite
p606
sg12
I456
sg13
g14
(S'\x07\xda\x05\r\x00\x00\x00\x00\x00\x00'
p607
tp608
Rp609
sg18
VGalloway
p610
sg20
S'http://www.tdcj.state.tx.us/death_row/dr_info/gallowaybillylast.html'
p611
sa(dp612
g2
VKevin
p613
sg4
S'http://www.tdcj.state.tx.us/death_row/dr_info/vargakevin.html'
p614
sg6
I999368
sg7
I41
sg8
VHunt
p615
sg10
VWhite
p616
sg12
I455
sg13
g14
(S'\x07\xda\x05\x0c\x00\x00\x00\x00\x00\x00'
p617
tp618
Rp619
sg18
VVarga
p620
sg20
S'http://www.tdcj.state.tx.us/death_row/dr_info/vargakevinlast.html'
p621
sa(dp622
g2
VSamuel
p623
sg4
S'http://www.tdcj.state.tx.us/death_row/dr_info/bustamantesamuel.html'
p624
sg6
I999380
sg7
I40
sg8
VFort Bend
p625
sg10
VHispanic
p626
sg12
I454
sg13
g14
(S'\x07\xda\x04\x1b\x00\x00\x00\x00\x00\x00'
p627
tp628
Rp629
sg18
VBustamante
p630
sg20
S'http://www.tdcj.state.tx.us/death_row/dr_info/no_last_statement.html'
p631
sa(dp632
g2
VWilliam
p633
sg4
S'http://www.tdcj.state.tx.us/death_row/dr_info/berkleywilliam.html'
p634
sg6
I999422
sg7
I31
sg8
VEl Paso
p635
sg10
VWhite
p636
sg12
I453
sg13
g14
(S'\x07\xda\x04\x16\x00\x00\x00\x00\x00\x00'
p637
tp638
Rp639
sg18
VBerkley
p640
sg20
S'http://www.tdcj.state.tx.us/death_row/dr_info/berkleywilliamlast.html'
p641
sa(dp642
g2
VFranklin
p643
sg4
S'http://www.tdcj.state.tx.us/death_row/dr_info/alixfranklin.html'
p644
sg6
I999286
sg7
I34
sg8
VHarris
p645
sg10
VBlack
p646
sg12
I452
sg13
g14
(S'\x07\xda\x03\x1e\x00\x00\x00\x00\x00\x00'
p647
tp648
Rp649
sg18
VAlix
p650
sg20
S'http://www.tdcj.state.tx.us/death_row/dr_info/alixfranklinlast.html'
p651
sa(dp652
g2
VJoshua
p653
sg4
S'http://www.tdcj.state.tx.us/death_row/dr_info/maxwelljoshua.html'
p654
sg6
I999408
sg7
I31
sg8
VBexar
p655
sg10
VWhite
p656
sg12
I451
sg13
g14
(S'\x07\xda\x03\x0b\x00\x00\x00\x00\x00\x00'
p657
tp658
Rp659
sg18
VMaxwell
p660
sg20
S'http://www.tdcj.state.tx.us/death_row/dr_info/maxwelljoshualast.html'
p661
sa(dp662
g2
VMichael
p663
sg4
S'http://www.tdcj.state.tx.us/death_row/dr_info/sigalamichael.html'
p664
sg6
I999397
sg7
I32
sg8
VCollin
p665
sg10
VHispanic
p666
sg12
I450
sg13
g14
(S'\x07\xda\x03\x02\x00\x00\x00\x00\x00\x00'
p667
tp668
Rp669
sg18
VSigala
p670
sg20
S'http://www.tdcj.state.tx.us/death_row/dr_info/sigalamichaellast.html'
p671
sa(dp672
g2
VGary
p673
sg4
S'http://www.tdcj.state.tx.us/death_row/dr_info/johnsongary.jpg'
p674
sg6
I911
sg7
I59
sg8
VWalker
p675
sg10
VWhite
p676
sg12
I449
sg13
g14
(S'\x07\xda\x01\x0c\x00\x00\x00\x00\x00\x00'
p677
tp678
Rp679
sg18
VJohnson
p680
sg20
S'http://www.tdcj.state.tx.us/death_row/dr_info/johnsongarylast.html'
p681
sa(dp682
g2
VKenneth
p683
sg4
S'http://www.tdcj.state.tx.us/death_row/dr_info/mosleykenneth.html'
p684
sg6
I999243
sg7
I51
sg8
VDallas
p685
sg10
VBlack
p686
sg12
I448
sg13
g14
(S'\x07\xda\x01\x07\x00\x00\x00\x00\x00\x00'
p687
tp688
Rp689
sg18
VMosley
p690
sg20
S'http://www.tdcj.state.tx.us/death_row/dr_info/no_last_statement.html'
p691
sa(dp692
g2
VBobby
p693
sg4
S'http://www.tdcj.state.tx.us/death_row/dr_info/woodsbobby.html'
p694
sg6
I999270
sg7
I44
sg8
VLlano
p695
sg10
VWhite
p696
sg12
I447
sg13
g14
(S'\x07\xd9\x0c\x03\x00\x00\x00\x00\x00\x00'
p697
tp698
Rp699
sg18
VWoods
p700
sg20
S'http://www.tdcj.state.tx.us/death_row/dr_info/woodsbobbylast.html'
p701
sa(dp702
g2
VRobert
p703
sg4
S'http://www.tdcj.state.tx.us/death_row/dr_info/thompsonrobert.html'
p704
sg6
I999276
sg7
I34
sg8
VHarris
p705
sg10
VBlack
p706
sg12
I446
sg13
g14
(S'\x07\xd9\x0b\x13\x00\x00\x00\x00\x00\x00'
p707
tp708
Rp709
sg18
VThompson
p710
sg20
S'http://www.tdcj.state.tx.us/death_row/dr_info/thompsonrobertlast.html'
p711
sa(dp712
g2
VDanielle
p713
sg4
S'http://www.tdcj.state.tx.us/death_row/dr_info/simpsondanielle.html'
p714
sg6
I999370
sg7
I30
sg8
VAnderson
p715
sg10
VBlack
p716
sg12
I445
sg13
g14
(S'\x07\xd9\x0b\x12\x00\x00\x00\x00\x00\x00'
p717
tp718
Rp719
sg18
VSimpson
p720
sg20
S'http://www.tdcj.state.tx.us/death_row/dr_info/simpsondaniellelast.html'
p721
sa(dp722
g2
VYosvanis
p723
sg4
S'http://www.tdcj.state.tx.us/death_row/dr_info/valleyosvanis.html'
p724
sg6
I999384
sg7
I34
sg8
VHarris
p725
sg10
VHispanic
p726
sg12
I444
sg13
g14
(S'\x07\xd9\x0b\n\x00\x00\x00\x00\x00\x00'
p727
tp728
Rp729
sg18
VValle
p730
sg20
S'http://www.tdcj.state.tx.us/death_row/dr_info/valleyosvanislast.html'
p731
sa(dp732
g2
VKhristian
p733
sg4
S'http://www.tdcj.state.tx.us/death_row/dr_info/oliverkhristian.html'
p734
sg6
I999301
sg7
I32
sg8
VNacogdoches
p735
sg10
VWhite
p736
sg12
I443
sg13
g14
(S'\x07\xd9\x0b\x05\x00\x00\x00\x00\x00\x00'
p737
tp738
Rp739
sg18
VOliver
p740
sg20
S'http://www.tdcj.state.tx.us/death_row/dr_info/oliverkhristianlast.html'
p741
sa(dp742
g2
VReginald
p743
sg4
S'http://www.tdcj.state.tx.us/death_row/dr_info/blantonreginald.html'
p744
sg6
I999395
sg7
I28
sg8
VBexar
p745
sg10
VBlack
p746
sg12
I442
sg13
g14
(S'\x07\xd9\n\x1b\x00\x00\x00\x00\x00\x00'
p747
tp748
Rp749
sg18
VBlanton
p750
sg20
S'http://www.tdcj.state.tx.us/death_row/dr_info/blantonreginaldlast.html'
p751
sa(dp752
g2
VChristopher
p753
sg4
S'http://www.tdcj.state.tx.us/death_row/dr_info/colemanchristopher.html'
p754
sg6
I999239
sg7
I37
sg8
VHarris
p755
sg10
VBlack
p756
sg12
I441
sg13
g14
(S'\x07\xd9\t\x16\x00\x00\x00\x00\x00\x00'
p757
tp758
Rp759
sg18
VColeman
p760
sg20
S'http://www.tdcj.state.tx.us/death_row/dr_info/colemanchristopherlast.html'
p761
sa(dp762
g2
VStephen
p763
sg4
S'http://www.tdcj.state.tx.us/death_row/dr_info/moodystephen.jpg'
p764
sg6
I999076
sg7
I52
sg8
VHarris
p765
sg10
VWhite
p766
sg12
I440
sg13
g14
(S'\x07\xd9\t\x10\x00\x00\x00\x00\x00\x00'
p767
tp768
Rp769
sg18
VMoody
p770
sg20
S'http://www.tdcj.state.tx.us/death_row/dr_info/moodystephenlast.html'
p771
sa(dp772
g2
VTerry
p773
sg4
S'http://www.tdcj.state.tx.us/death_row/dr_info/hankinsterry.html'
p774
sg6
I999415
sg7
I34
sg8
VTarrant
p775
sg10
VWhite
p776
sg12
I439
sg13
g14
(S'\x07\xd9\x06\x02\x00\x00\x00\x00\x00\x00'
p777
tp778
Rp779
sg18
VHankins
p780
sg20
S'http://www.tdcj.state.tx.us/death_row/dr_info/hankinsterrylast.html'
p781
sa(dp782
g2
VMichael
p783
sg4
S'http://www.tdcj.state.tx.us/death_row/dr_info/rileymichael.jpg'
p784
sg6
I851
sg7
I51
sg8
VWood
p785
sg10
VBlack
p786
sg12
I438
sg13
g14
(S'\x07\xd9\x05\x13\x00\x00\x00\x00\x00\x00'
p787
tp788
Rp789
sg18
VRiley
p790
sg20
S'http://www.tdcj.state.tx.us/death_row/dr_info/rileymichaellast.html'
p791
sa(dp792
g2
VDerrick
p793
sg4
S'http://www.tdcj.state.tx.us/death_row/dr_info/johnsonderrick.html'
p794
sg6
I999339
sg7
I28
sg8
VDallas
p795
sg10
VBlack
p796
sg12
I437
sg13
g14
(S'\x07\xd9\x04\x1e\x00\x00\x00\x00\x00\x00'
p797
tp798
Rp799
sg18
VJohnson
p800
sg20
S'http://www.tdcj.state.tx.us/death_row/dr_info/johnsonderricklast.html'
p801
sa(dp802
g2
VMichael
p803
sg4
S'http://www.tdcj.state.tx.us/death_row/dr_info/rosalesmichael.html'
p804
sg6
I999274
sg7
I35
sg8
VLubbock
p805
sg10
VHispanic
p806
sg12
I436
sg13
g14
(S'\x07\xd9\x04\x0f\x00\x00\x00\x00\x00\x00'
p807
tp808
Rp809
sg18
VRosales
p810
sg20
S'http://www.tdcj.state.tx.us/death_row/dr_info/rosalesmichaellast.html'
p811
sa(dp812
g2
VLuis
p813
sg4
S'http://www.tdcj.state.tx.us/death_row/dr_info/salazarluis.html'
p814
sg6
I999285
sg7
I38
sg8
VBexar
p815
sg10
VHispanic
p816
sg12
I435
sg13
g14
(S'\x07\xd9\x03\x0b\x00\x00\x00\x00\x00\x00'
p817
tp818
Rp819
sg18
VSalazar
p820
sg20
S'http://www.tdcj.state.tx.us/death_row/dr_info/salazarluislast.html'
p821
sa(dp822
g2
VJames
p823
sg4
S'http://www.tdcj.state.tx.us/death_row/dr_info/martinezjames.html'
p824
sg6
I999404
sg7
I34
sg8
VTarrant
p825
sg10
VHispanic
p826
sg12
I434
sg13
g14
(S'\x07\xd9\x03\n\x00\x00\x00\x00\x00\x00'
p827
tp828
Rp829
sg18
VMartinez
p830
sg20
S'http://www.tdcj.state.tx.us/death_row/dr_info/martinezjameslast.html'
p831
sa(dp832
g2
VKenneth
p833
sg4
S'http://www.tdcj.state.tx.us/death_row/dr_info/morriskenneth.jpg'
p834
sg6
I999117
sg7
I38
sg8
VHarris
p835
sg10
VBlack
p836
sg12
I433
sg13
g14
(S'\x07\xd9\x03\x04\x00\x00\x00\x00\x00\x00'
p837
tp838
Rp839
sg18
VMorris
p840
sg20
S'http://www.tdcj.state.tx.us/death_row/dr_info/morriskennethlast.html'
p841
sa(dp842
g2
VWillie
p843
sg4
S'http://www.tdcj.state.tx.us/death_row/dr_info/pondexterwillie.jpg'
p844
sg6
I999111
sg7
I34
sg8
VRed River
p845
sg10
VBlack
p846
sg12
I432
sg13
g14
(S'\x07\xd9\x03\x03\x00\x00\x00\x00\x00\x00'
p847
tp848
Rp849
sg18
VPondexter
p850
sg20
S'http://www.tdcj.state.tx.us/death_row/dr_info/pondexterwillielast.html'
p851
sa(dp852
g2
VJohnny
p853
sg4
S'http://www.tdcj.state.tx.us/death_row/dr_info/johnsonjohnny.jpg'
p854
sg6
I999197
sg7
I51
sg8
VHarris
p855
sg10
VBlack
p856
sg12
I431
sg13
g14
(S'\x07\xd9\x02\x0c\x00\x00\x00\x00\x00\x00'
p857
tp858
Rp859
sg18
VJohnson
p860
sg20
S'http://www.tdcj.state.tx.us/death_row/dr_info/johnsonjohnnylast.html'
p861
sa(dp862
g2
VDale
p863
sg4
S'http://www.tdcj.state.tx.us/death_row/dr_info/scheanettedale.html'
p864
sg6
I999440
sg7
I35
sg8
VTarrant
p865
sg10
VBlack
p866
sg12
I430
sg13
g14
(S'\x07\xd9\x02\n\x00\x00\x00\x00\x00\x00'
p867
tp868
Rp869
sg18
VScheanette
p870
sg20
S'http://www.tdcj.state.tx.us/death_row/dr_info/scheanettedalelast.html'
p871
sa(dp872
g2
VDavid
p873
sg4
S'http://www.tdcj.state.tx.us/death_row/dr_info/martinezdavid.jpg'
p874
sg6
I999173
sg7
I36
sg8
VBexar
p875
sg10
VHispanic
p876
sg12
I429
sg13
g14
(S'\x07\xd9\x02\x04\x00\x00\x00\x00\x00\x00'
p877
tp878
Rp879
sg18
VMartinez
p880
sg20
S'http://www.tdcj.state.tx.us/death_row/dr_info/martinezdavidlast999173.html'
p881
sa(dp882
g2
VRicardo
p883
sg4
S'http://www.tdcj.state.tx.us/death_row/dr_info/ortizricardo.html'
p884
sg6
I999320
sg7
I46
sg8
VEl Paso
p885
sg10
VHispanic
p886
sg12
I428
sg13
g14
(S'\x07\xd9\x01\x1d\x00\x00\x00\x00\x00\x00'
p887
tp888
Rp889
sg18
VOrtiz
p890
sg20
S'http://www.tdcj.state.tx.us/death_row/dr_info/ortizricardolast.html'
p891
sa(dp892
g2
VVirgil
p893
sg4
S'http://www.tdcj.state.tx.us/death_row/dr_info/martinezvirgil.html'
p894
sg6
I999265
sg7
I41
sg8
VBrazoria
p895
sg10
VHispanic
p896
sg12
I427
sg13
g14
(S'\x07\xd9\x01\x1c\x00\x00\x00\x00\x00\x00'
p897
tp898
Rp899
sg18
VMartinez
p900
sg20
S'http://www.tdcj.state.tx.us/death_row/dr_info/martinezvirgillast.html'
p901
sa(dp902
g2
VReginald
p903
sg4
S'http://www.tdcj.state.tx.us/death_row/dr_info/perkinsreginald.html'
p904
sg6
I999407
sg7
I53
sg8
VTarrant
p905
sg10
VBlack
p906
sg12
I426
sg13
g14
(S'\x07\xd9\x01\x16\x00\x00\x00\x00\x00\x00'
p907
tp908
Rp909
sg18
VPerkins
p910
sg20
S'http://www.tdcj.state.tx.us/death_row/dr_info/perkinsreginaldlast.html'
p911
sa(dp912
g2
VFrank
p913
sg4
S'http://www.tdcj.state.tx.us/death_row/dr_info/moorefrank.jpg'
p914
sg6
I999210
sg7
I49
sg8
VBexar
p915
sg10
VBlack
p916
sg12
I425
sg13
g14
(S'\x07\xd9\x01\x15\x00\x00\x00\x00\x00\x00'
p917
tp918
Rp919
sg18
VMoore
p920
sg20
S'http://www.tdcj.state.tx.us/death_row/dr_info/moorefranklast.html'
p921
sa(dp922
g2
VCurtis
p923
sg4
S'http://www.tdcj.state.tx.us/death_row/dr_info/moorecurtis.html'
p924
sg6
I999212
sg7
I40
sg8
VTarrant
p925
sg10
VBlack
p926
sg12
I424
sg13
g14
(S'\x07\xd9\x01\x0e\x00\x00\x00\x00\x00\x00'
p927
tp928
Rp929
sg18
VMoore
p930
sg20
S'http://www.tdcj.state.tx.us/death_row/dr_info/moorecurtislast.html'
p931
sa(dp932
g2
VRobert
p933
sg4
S'http://www.tdcj.state.tx.us/death_row/dr_info/hudsonrobert.html'
p934
sg6
I999353
sg7
I45
sg8
VDallas
p935
sg10
VBlack
p936
sg12
I423
sg13
g14
(S'\x07\xd8\x0b\x14\x00\x00\x00\x00\x00\x00'
p937
tp938
Rp939
sg18
VHudson
p940
sg20
S'http://www.tdcj.state.tx.us/death_row/dr_info/hudsonrobertlast.html'
p941
sa(dp942
g2
VDenard
p943
sg4
S'http://www.tdcj.state.tx.us/death_row/dr_info/mannsdenard.html'
p944
sg6
I999405
sg7
I42
sg8
VBell
p945
sg10
VBlack
p946
sg12
I422
sg13
g14
(S'\x07\xd8\x0b\r\x00\x00\x00\x00\x00\x00'
p947
tp948
Rp949
sg18
VManns
p950
sg20
S'http://www.tdcj.state.tx.us/death_row/dr_info/mannsdenardlast.html'
p951
sa(dp952
g2
VGeorge
p953
sg4
S'http://www.tdcj.state.tx.us/death_row/dr_info/whitakergeorge.jpg'
p954
sg6
I999196
sg7
I36
sg8
VHarris
p955
sg10
VBlack
p956
sg12
I421
sg13
g14
(S'\x07\xd8\x0b\x0c\x00\x00\x00\x00\x00\x00'
p957
tp958
Rp959
sg18
VWhitaker III
p960
sg20
S'http://www.tdcj.state.tx.us/death_row/dr_info/whitakergeorgelast.html'
p961
sa(dp962
g2
VElkie
p963
sg4
S'http://www.tdcj.state.tx.us/death_row/dr_info/taylorelkie.jpg'
p964
sg6
I999112
sg7
I46
sg8
VTarrant
p965
sg10
VBlack
p966
sg12
I420
sg13
g14
(S'\x07\xd8\x0b\x06\x00\x00\x00\x00\x00\x00'
p967
tp968
Rp969
sg18
VTaylor
p970
sg20
S'http://www.tdcj.state.tx.us/death_row/dr_info/taylorelkielast.html'
p971
sa(dp972
g2
VGregory
p973
sg4
S'http://www.tdcj.state.tx.us/death_row/dr_info/wrightgregory.html'
p974
sg6
I999253
sg7
I42
sg8
VDallas
p975
sg10
VWhite
p976
sg12
I419
sg13
g14
(S'\x07\xd8\n\x1e\x00\x00\x00\x00\x00\x00'
p977
tp978
Rp979
sg18
VWright
p980
sg20
S'http://www.tdcj.state.tx.us/death_row/dr_info/wrightgregorylast.html'
p981
sa(dp982
g2
VEric
p983
sg4
S'http://www.tdcj.state.tx.us/death_row/dr_info/nennoeric.jpg'
p984
sg6
I999188
sg7
I45
sg8
VHarris
p985
sg10
VWhite
p986
sg12
I418
sg13
g14
(S'\x07\xd8\n\x1c\x00\x00\x00\x00\x00\x00'
p987
tp988
Rp989
sg18
VNenno
p990
sg20
S'http://www.tdcj.state.tx.us/death_row/dr_info/no_last_statement.html'
p991
sa(dp992
g2
VJoseph
p993
sg4
S'http://www.tdcj.state.tx.us/death_row/dr_info/riesjoseph.html'
p994
sg6
I999335
sg7
I29
sg8
VHopkins
p995
sg10
VWhite
p996
sg12
I417
sg13
g14
(S'\x07\xd8\n\x15\x00\x00\x00\x00\x00\x00'
p997
tp998
Rp999
sg18
VRies
p1000
sg20
S'http://www.tdcj.state.tx.us/death_row/dr_info/riesjosephlast.html'
p1001
sa(dp1002
g2
VKevin
p1003
sg4
S'http://www.tdcj.state.tx.us/death_row/dr_info/wattskevin.html'
p1004
sg6
I999456
sg7
I27
sg8
VBexar
p1005
sg10
VBlack
p1006
sg12
I416
sg13
g14
(S'\x07\xd8\n\x10\x00\x00\x00\x00\x00\x00'
p1007
tp1008
Rp1009
sg18
VWatts
p1010
sg20
S'http://www.tdcj.state.tx.us/death_row/dr_info/wattskevinlast.html'
p1011
sa(dp1012
g2
VAlvin
p1013
sg4
S'http://www.tdcj.state.tx.us/death_row/dr_info/kellyalvin.jpg'
p1014
sg6
I999012
sg7
I57
sg8
VGregg
p1015
sg10
VWhite
p1016
sg12
I415
sg13
g14
(S'\x07\xd8\n\x0e\x00\x00\x00\x00\x00\x00'
p1017
tp1018
Rp1019
sg18
VKelly
p1020
sg20
S'http://www.tdcj.state.tx.us/death_row/dr_info/kellyalvinlast.html'
p1021
sa(dp1022
g2
VWilliam
p1023
sg4
S'http://www.tdcj.state.tx.us/death_row/dr_info/murraywilliam.html'
p1024
sg6
I999313
sg7
I39
sg8
VKaufman
p1025
sg10
VWhite
p1026
sg12
I414
sg13
g14
(S'\x07\xd8\t\x11\x00\x00\x00\x00\x00\x00'
p1027
tp1028
Rp1029
sg18
VMurray
p1030
sg20
S'http://www.tdcj.state.tx.us/death_row/dr_info/murraywilliamlast.html'
p1031
sa(dp1032
g2
VMichael
p1033
sg4
S'http://www.tdcj.state.tx.us/death_row/dr_info/rodriguezmichael.html'
p1034
sg6
I999413
sg7
I40
sg8
VDallas
p1035
sg10
VHispanic
p1036
sg12
I413
sg13
g14
(S'\x07\xd8\x08\x0e\x00\x00\x00\x00\x00\x00'
p1037
tp1038
Rp1039
sg18
VRodriguez
p1040
sg20
S'http://www.tdcj.state.tx.us/death_row/dr_info/rodriguezmichaellast.html'
p1041
sa(dp1042
g2
VLeon
p1043
sg4
S'http://www.tdcj.state.tx.us/death_row/dr_info/dorseyleon.html'
p1044
sg6
I999359
sg7
I32
sg8
VDallas
p1045
sg10
VBlack
p1046
sg12
I412
sg13
g14
(S'\x07\xd8\x08\x0c\x00\x00\x00\x00\x00\x00'
p1047
tp1048
Rp1049
sg18
VDorsey
p1050
sg20
S'http://www.tdcj.state.tx.us/death_row/dr_info/dorseyleonlast.html'
p1051
sa(dp1052
g2
VHeliberto
p1053
sg4
S'http://www.tdcj.state.tx.us/death_row/dr_info/chiheliberto.html'
p1054
sg6
I999437
sg7
I29
sg8
VTarrant
p1055
sg10
VHispanic
p1056
sg12
I411
sg13
g14
(S'\x07\xd8\x08\x07\x00\x00\x00\x00\x00\x00'
p1057
tp1058
Rp1059
sg18
VChi
p1060
sg20
S'http://www.tdcj.state.tx.us/death_row/dr_info/chihelibertolast.html'
p1061
sa(dp1062
g2
VJose
p1063
sg4
S'http://www.tdcj.state.tx.us/death_row/dr_info/medellinjose.jpg'
p1064
sg6
I999134
sg7
I33
sg8
VHarris
p1065
sg10
VHispanic
p1066
sg12
I410
sg13
g14
(S'\x07\xd8\x08\x05\x00\x00\x00\x00\x00\x00'
p1067
tp1068
Rp1069
sg18
VMedellin
p1070
sg20
S'http://www.tdcj.state.tx.us/death_row/dr_info/medellinjoselast.html'
p1071
sa(dp1072
g2
VLarry
p1073
sg4
S'http://www.tdcj.state.tx.us/death_row/dr_info/davislarry.html'
p1074
sg6
I999316
sg7
I40
sg8
VPotter
p1075
sg10
VBlack
p1076
sg12
I409
sg13
g14
(S'\x07\xd8\x07\x1f\x00\x00\x00\x00\x00\x00'
p1077
tp1078
Rp1079
sg18
VDavis
p1080
sg20
S'http://www.tdcj.state.tx.us/death_row/dr_info/davislarrylast.html'
p1081
sa(dp1082
g2
VDerrick
p1083
sg4
S'http://www.tdcj.state.tx.us/death_row/dr_info/sonnierderrick.jpg'
p1084
sg6
I999054
sg7
I40
sg8
VHarris
p1085
sg10
VBlack
p1086
sg12
I408
sg13
g14
(S'\x07\xd8\x07\x17\x00\x00\x00\x00\x00\x00'
p1087
tp1088
Rp1089
sg18
VSonnier
p1090
sg20
S'http://www.tdcj.state.tx.us/death_row/dr_info/no_last_statement.html'
p1091
sa(dp1092
g2
VCarlton
p1093
sg4
S'http://www.tdcj.state.tx.us/death_row/dr_info/turnercarlton.html'
p1094
sg6
I999321
sg7
I29
sg8
VDallas
p1095
sg10
VBlack
p1096
sg12
I407
sg13
g14
(S'\x07\xd8\x07\n\x00\x00\x00\x00\x00\x00'
p1097
tp1098
Rp1099
sg18
VTurner
p1100
sg20
S'http://www.tdcj.state.tx.us/death_row/dr_info/turnercarltonlast.html'
p1101
sa(dp1102
g2
VKarl
p1103
sg4
S'http://www.tdcj.state.tx.us/death_row/dr_info/chamberlainkarl.html'
p1104
sg6
I999241
sg7
I37
sg8
VDallas
p1105
sg10
VWhite
p1106
sg12
I406
sg13
g14
(S'\x07\xd8\x06\x0b\x00\x00\x00\x00\x00\x00'
p1107
tp1108
Rp1109
sg18
VChamberlain
p1110
sg20
S'http://www.tdcj.state.tx.us/death_row/dr_info/chamberlainkarllast.html'
p1111
sa(dp1112
g2
VMichael
p1113
sg4
S'http://www.tdcj.state.tx.us/death_row/dr_info/richardsmichael.jpg'
p1114
sg6
I890
sg7
I48
sg8
VHarris
p1115
sg10
VBlack
p1116
sg12
I405
sg13
g14
(S'\x07\xd7\t\x19\x00\x00\x00\x00\x00\x00'
p1117
tp1118
Rp1119
sg18
VRichard
p1120
sg20
S'http://www.tdcj.state.tx.us/death_row/dr_info/richardmichaellast.html'
p1121
sa(dp1122
g2
VClifford
p1123
sg4
S'http://www.tdcj.state.tx.us/death_row/dr_info/kimmelclifford.html'
p1124
sg6
I999347
sg7
I32
sg8
VBexar
p1125
sg10
VWhite
p1126
sg12
I404
sg13
g14
(S'\x07\xd7\t\x14\x00\x00\x00\x00\x00\x00'
p1127
tp1128
Rp1129
sg18
VKimmel
p1130
sg20
S'http://www.tdcj.state.tx.us/death_row/dr_info/no_last_statement.html'
p1131
sa(dp1132
g2
VTony
p1133
sg4
S'http://www.tdcj.state.tx.us/death_row/dr_info/roachtony.html'
p1134
sg6
I999323
sg7
I30
sg8
VPotter
p1135
sg10
VWhite
p1136
sg12
I403
sg13
g14
(S'\x07\xd7\t\x05\x00\x00\x00\x00\x00\x00'
p1137
tp1138
Rp1139
sg18
VRoach
p1140
sg20
S'http://www.tdcj.state.tx.us/death_row/dr_info/roachtonylast.html'
p1141
sa(dp1142
g2
VJohn
p1143
sg4
S'http://www.tdcj.state.tx.us/death_row/dr_info/amadorjohn.jpg'
p1144
sg6
I999160
sg7
I32
sg8
VBexar
p1145
sg10
VHispanic
p1146
sg12
I402
sg13
g14
(S'\x07\xd7\x08\x1d\x00\x00\x00\x00\x00\x00'
p1147
tp1148
Rp1149
sg18
VAmador
p1150
sg20
S'http://www.tdcj.state.tx.us/death_row/dr_info/amadorjohnlast.html'
p1151
sa(dp1152
g2
VDaroyce
p1153
sg4
S'http://www.tdcj.state.tx.us/death_row/dr_info/mosleydaroyce.jpg'
p1154
sg6
I999171
sg7
I32
sg8
VGregg
p1155
sg10
VBlack
p1156
sg12
I401
sg13
g14
(S'\x07\xd7\x08\x1c\x00\x00\x00\x00\x00\x00'
p1157
tp1158
Rp1159
sg18
VMosley
p1160
sg20
S'http://www.tdcj.state.tx.us/death_row/dr_info/moselydaroycelast.html'
p1161
sa(dp1162
g2
VJohnny
p1163
sg4
S'http://www.tdcj.state.tx.us/death_row/dr_info/connerjohnny.html'
p1164
sg6
I999324
sg7
I32
sg8
VHarris
p1165
sg10
VBlack
p1166
sg12
I400
sg13
g14
(S'\x07\xd7\x08\x16\x00\x00\x00\x00\x00\x00'
p1167
tp1168
Rp1169
sg18
VConner
p1170
sg20
S'http://www.tdcj.state.tx.us/death_row/dr_info/connerjohnnylast.html'
p1171
sa(dp1172
g2
VKenneth
p1173
sg4
S'http://www.tdcj.state.tx.us/death_row/dr_info/parrkenneth.html'
p1174
sg6
I999312
sg7
I27
sg8
VMatagorda
p1175
sg10
VBlack
p1176
sg12
I399
sg13
g14
(S'\x07\xd7\x08\x0f\x00\x00\x00\x00\x00\x00'
p1177
tp1178
Rp1179
sg18
VParr
p1180
sg20
S'http://www.tdcj.state.tx.us/death_row/dr_info/parrkennethlast.html'
p1181
sa(dp1182
g2
VLonnie
p1183
sg4
S'http://www.tdcj.state.tx.us/death_row/dr_info/johnsonlonnie.jpg'
p1184
sg6
I999135
sg7
I44
sg8
VHarris
p1185
sg10
VBlack
p1186
sg12
I398
sg13
g14
(S'\x07\xd7\x07\x18\x00\x00\x00\x00\x00\x00'
p1187
tp1188
Rp1189
sg18
VJohnson
p1190
sg20
S'http://www.tdcj.state.tx.us/death_row/dr_info/johnsonlonnielast.html'
p1191
sa(dp1192
g2
VPatrick
p1193
sg4
S'http://www.tdcj.state.tx.us/death_row/dr_info/knightpatrick.jpg'
p1194
sg6
I999072
sg7
I39
sg8
VRandall
p1195
sg10
VWhite
p1196
sg12
I397
sg13
g14
(S'\x07\xd7\x06\x1a\x00\x00\x00\x00\x00\x00'
p1197
tp1198
Rp1199
sg18
VKnight
p1200
sg20
S'http://www.tdcj.state.tx.us/death_row/dr_info/knightpatricklast.html'
p1201
sa(dp1202
g2
VGilberto
p1203
sg4
S'http://www.tdcj.state.tx.us/death_row/dr_info/reyesgilberto.html'
p1204
sg6
I999352
sg7
I33
sg8
VBailey
p1205
sg10
VHispanic
p1206
sg12
I396
sg13
g14
(S'\x07\xd7\x06\x15\x00\x00\x00\x00\x00\x00'
p1207
tp1208
Rp1209
sg18
VReyes
p1210
sg20
S'http://www.tdcj.state.tx.us/death_row/dr_info/reyesgilbertolast.html'
p1211
sa(dp1212
g2
VLionell
p1213
sg4
S'http://www.tdcj.state.tx.us/death_row/dr_info/rodrigezlionell.jpg'
p1214
sg6
I999002
sg7
I36
sg8
VHarris
p1215
sg10
VHispanic
p1216
sg12
I395
sg13
g14
(S'\x07\xd7\x06\x14\x00\x00\x00\x00\x00\x00'
p1217
tp1218
Rp1219
sg18
VRodriguez
p1220
sg20
S'http://www.tdcj.state.tx.us/death_row/dr_info/rodriguezlionelllast.html'
p1221
sa(dp1222
g2
VMichael
p1223
sg4
S'http://www.tdcj.state.tx.us/death_row/dr_info/griffithmichael.jpg'
p1224
sg6
I999176
sg7
I56
sg8
VHarris
p1225
sg10
VWhite
p1226
sg12
I394
sg13
g14
(S'\x07\xd7\x06\x06\x00\x00\x00\x00\x00\x00'
p1227
tp1228
Rp1229
sg18
VGriffith
p1230
sg20
S'http://www.tdcj.state.tx.us/death_row/dr_info/no_last_statement.html'
p1231
sa(dp1232
g2
VCharles
p1233
sg4
S'http://www.tdcj.state.tx.us/death_row/dr_info/smithcharles.jpg'
p1234
sg6
I953
sg7
I41
sg8
VPecos
p1235
sg10
VWhite
p1236
sg12
I393
sg13
g14
(S'\x07\xd7\x05\x10\x00\x00\x00\x00\x00\x00'
p1237
tp1238
Rp1239
sg18
VSmith
p1240
sg20
S'http://www.tdcj.state.tx.us/death_row/dr_info/no_last_statement.html'
p1241
sa(dp1242
g2
VRyan
p1243
sg4
S'http://www.tdcj.state.tx.us/death_row/dr_info/dicksonryan.html'
p1244
sg6
I999250
sg7
I30
sg8
VPotter
p1245
sg10
VWhite
p1246
sg12
I392
sg13
g14
(S'\x07\xd7\x04\x1a\x00\x00\x00\x00\x00\x00'
p1247
tp1248
Rp1249
sg18
VDickson
p1250
sg20
S'http://www.tdcj.state.tx.us/death_row/dr_info/dicksonryanlast.html'
p1251
sa(dp1252
g2
VJames
p1253
sg4
S'http://www.tdcj.state.tx.us/death_row/dr_info/clarkjames.html'
p1254
sg6
I999095
sg7
I38
sg8
VDenton
p1255
sg10
VWhite
p1256
sg12
I391
sg13
g14
(S'\x07\xd7\x04\x0b\x00\x00\x00\x00\x00\x00'
p1257
tp1258
Rp1259
sg18
VClark
p1260
sg20
S'http://www.tdcj.state.tx.us/death_row/dr_info/clarkjameslast.html'
p1261
sa(dp1262
g2
VRoy
p1263
sg4
S'http://www.tdcj.state.tx.us/death_row/dr_info/pippenroy.jpg'
p1264
sg6
I999170
sg7
I51
sg8
VHarris
p1265
sg10
VWhite
p1266
sg12
I390
sg13
g14
(S'\x07\xd7\x03\x1d\x00\x00\x00\x00\x00\x00'
p1267
tp1268
Rp1269
sg18
VPippin
p1270
sg20
S'http://www.tdcj.state.tx.us/death_row/dr_info/pippinroylast.html'
p1271
sa(dp1272
g2
VVincent
p1273
sg4
S'http://www.tdcj.state.tx.us/death_row/dr_info/gutierrezvincent.html'
p1274
sg6
I999262
sg7
I28
sg8
VBexar
p1275
sg10
VHispanic
p1276
sg12
I389
sg13
g14
(S'\x07\xd7\x03\x1c\x00\x00\x00\x00\x00\x00'
p1277
tp1278
Rp1279
sg18
VGutierrez
p1280
sg20
S'http://www.tdcj.state.tx.us/death_row/dr_info/gutierrezvincentlast.html'
p1281
sa(dp1282
g2
VCharles
p1283
sg4
S'http://www.tdcj.state.tx.us/death_row/dr_info/nealycharles.html'
p1284
sg6
I999289
sg7
I42
sg8
VDallas
p1285
sg10
VBlack
p1286
sg12
I388
sg13
g14
(S'\x07\xd7\x03\x14\x00\x00\x00\x00\x00\x00'
p1287
tp1288
Rp1289
sg18
VNealy
p1290
sg20
S'http://www.tdcj.state.tx.us/death_row/dr_info/nealycharleslast.html'
p1291
sa(dp1292
g2
VJoseph
p1293
sg4
S'http://www.tdcj.state.tx.us/death_row/dr_info/nicholsjoseph.jpg'
p1294
sg6
I709
sg7
I45
sg8
VHarris
p1295
sg10
VBlack
p1296
sg12
I387
sg13
g14
(S'\x07\xd7\x03\x07\x00\x00\x00\x00\x00\x00'
p1297
tp1298
Rp1299
sg18
VNichols
p1300
sg20
S'http://www.tdcj.state.tx.us/death_row/dr_info/nicholsjosephlast.html'
p1301
sa(dp1302
g2
VRobert
p1303
sg4
S'http://www.tdcj.state.tx.us/death_row/dr_info/perezrobert.html'
p1304
sg6
I999322
sg7
I48
sg8
VDallas
p1305
sg10
VHispanic
p1306
sg12
I386
sg13
g14
(S'\x07\xd7\x03\x06\x00\x00\x00\x00\x00\x00'
p1307
tp1308
Rp1309
sg18
VPerez
p1310
sg20
S'http://www.tdcj.state.tx.us/death_row/dr_info/perezrobertlast.html'
p1311
sa(dp1312
g2
VDonald
p1313
sg4
S'http://www.tdcj.state.tx.us/death_row/dr_info/millerdonald.jpg'
p1314
sg6
I728
sg7
I44
sg8
VHarris
p1315
sg10
VWhite
p1316
sg12
I385
sg13
g14
(S'\x07\xd7\x02\x1b\x00\x00\x00\x00\x00\x00'
p1317
tp1318
Rp1319
sg18
VMiller
p1320
sg20
S'http://www.tdcj.state.tx.us/death_row/dr_info/no_last_statement.html'
p1321
sa(dp1322
g2
VNewton
p1323
sg4
S'http://www.tdcj.state.tx.us/death_row/dr_info/andersonnewton.html'
p1324
sg6
I999355
sg7
I30
sg8
VSmith
p1325
sg10
VWhite
p1326
sg12
I384
sg13
g14
(S'\x07\xd7\x02\x16\x00\x00\x00\x00\x00\x00'
p1327
tp1328
Rp1329
sg18
VAnderson
p1330
sg20
S'http://www.tdcj.state.tx.us/death_row/dr_info/andersonnewtonlast.html'
p1331
sa(dp1332
g2
VJames
p1333
sg4
S'http://www.tdcj.state.tx.us/death_row/dr_info/jacksonjames.html'
p1334
sg6
I999272
sg7
I47
sg8
VHarris
p1335
sg10
VBlack
p1336
sg12
I383
sg13
g14
(S'\x07\xd7\x02\x07\x00\x00\x00\x00\x00\x00'
p1337
tp1338
Rp1339
sg18
VJackson
p1340
sg20
S'http://www.tdcj.state.tx.us/death_row/dr_info/jacksonjameslast.html'
p1341
sa(dp1342
g2
VChristopher
p1343
sg4
S'http://www.tdcj.state.tx.us/death_row/dr_info/swiftchristopher.html'
p1344
sg6
I999496
sg7
I31
sg8
VDenton
p1345
sg10
VWhite
p1346
sg12
I382
sg13
g14
(S'\x07\xd7\x01\x1e\x00\x00\x00\x00\x00\x00'
p1347
tp1348
Rp1349
sg18
VSwift
p1350
sg20
S'http://www.tdcj.state.tx.us/death_row/dr_info/no_last_statement.html'
p1351
sa(dp1352
g2
VJonathan
p1353
sg4
S'http://www.tdcj.state.tx.us/death_row/dr_info/moorejohnathan.jpg'
p1354
sg6
I999216
sg7
I32
sg8
VBexar
p1355
sg10
VWhite
p1356
sg12
I381
sg13
g14
(S'\x07\xd7\x01\x11\x00\x00\x00\x00\x00\x00'
p1357
tp1358
Rp1359
sg18
VMoore
p1360
sg20
S'http://www.tdcj.state.tx.us/death_row/dr_info/moorejonathanlast.html'
p1361
sa(dp1362
g2
VCarlos
p1363
sg4
S'http://www.tdcj.state.tx.us/death_row/dr_info/granadoscarlos.html'
p1364
sg6
I999307
sg7
I36
sg8
VWilliamson
p1365
sg10
VHispanic
p1366
sg12
I380
sg13
g14
(S'\x07\xd7\x01\n\x00\x00\x00\x00\x00\x00'
p1367
tp1368
Rp1369
sg18
VGranados
p1370
sg20
S'http://www.tdcj.state.tx.us/death_row/dr_info/granadoscarloslast.html'
p1371
sa(dp1372
g2
VWillie
p1373
sg4
S'http://www.tdcj.state.tx.us/death_row/dr_info/shannonwillie.jpg'
p1374
sg6
I999086
sg7
I30
sg8
VHarris
p1375
sg10
VBlack
p1376
sg12
I379
sg13
g14
(S'\x07\xd6\x0b\x08\x00\x00\x00\x00\x00\x00'
p1377
tp1378
Rp1379
sg18
VShannon
p1380
sg20
S'http://www.tdcj.state.tx.us/death_row/dr_info/shannonwillielast.html'
p1381
sa(dp1382
g2
VDonell
p1383
sg4
S'http://www.tdcj.state.tx.us/death_row/dr_info/jacksondonell.jpg'
p1384
sg6
I999206
sg7
I33
sg8
VHarris
p1385
sg10
VBlack
p1386
sg12
I378
sg13
g14
(S'\x07\xd6\x0b\x01\x00\x00\x00\x00\x00\x00'
p1387
tp1388
Rp1389
sg18
VJackson
p1390
sg20
S'http://www.tdcj.state.tx.us/death_row/dr_info/jacksondonelllast.html'
p1391
sa(dp1392
g2
VGregory
p1393
sg4
S'http://www.tdcj.state.tx.us/death_row/dr_info/summersgregory.jpg'
p1394
sg6
I999010
sg7
I48
sg8
VDenton
p1395
sg10
VWhite
p1396
sg12
I377
sg13
g14
(S'\x07\xd6\n\x19\x00\x00\x00\x00\x00\x00'
p1397
tp1398
Rp1399
sg18
VSummers
p1400
sg20
S'http://www.tdcj.state.tx.us/death_row/dr_info/no_last_statement.html'
p1401
sa(dp1402
g2
VFarley
p1403
sg4
S'http://www.tdcj.state.tx.us/death_row/dr_info/matchettfarley.jpg'
p1404
sg6
I999060
sg7
I43
sg8
VHarris
p1405
sg10
VBlack
p1406
sg12
I376
sg13
g14
(S'\x07\xd6\t\x0c\x00\x00\x00\x00\x00\x00'
p1407
tp1408
Rp1409
sg18
VMatchett
p1410
sg20
S'http://www.tdcj.state.tx.us/death_row/dr_info/matchettfarleylast.html'
p1411
sa(dp1412
g2
VDerrick
p1413
sg4
S'http://www.tdcj.state.tx.us/death_row/dr_info/frazierderrick.html'
p1414
sg6
I999284
sg7
I29
sg8
VRefugio
p1415
sg10
VBlack
p1416
sg12
I375
sg13
g14
(S'\x07\xd6\x08\x1f\x00\x00\x00\x00\x00\x00'
p1417
tp1418
Rp1419
sg18
VFrazier
p1420
sg20
S'http://www.tdcj.state.tx.us/death_row/dr_info/frazierderricklast.html'
p1421
sa(dp1422
g2
VJustin
p1423
sg4
S'http://www.tdcj.state.tx.us/death_row/dr_info/fullerjustin.html'
p1424
sg6
I999266
sg7
I27
sg8
VSmith
p1425
sg10
VBlack
p1426
sg12
I374
sg13
g14
(S'\x07\xd6\x08\x18\x00\x00\x00\x00\x00\x00'
p1427
tp1428
Rp1429
sg18
VFuller
p1430
sg20
S'http://www.tdcj.state.tx.us/death_row/dr_info/fullerjustinlast.html'
p1431
sa(dp1432
g2
VRichard
p1433
sg4
S'http://www.tdcj.state.tx.us/death_row/dr_info/hinojosarichard.html'
p1434
sg6
I999246
sg7
I43
sg8
VBexar
p1435
sg10
VHispanic
p1436
sg12
I373
sg13
g14
(S'\x07\xd6\x08\x11\x00\x00\x00\x00\x00\x00'
p1437
tp1438
Rp1439
sg18
VHinojosa
p1440
sg20
S'http://www.tdcj.state.tx.us/death_row/dr_info/hinojosarichardlast.html'
p1441
sa(dp1442
g2
VWilliam
p1443
sg4
S'http://www.tdcj.state.tx.us/death_row/dr_info/wyattwilliam.html'
p1444
sg6
I999255
sg7
I41
sg8
VBowie
p1445
sg10
VBlack
p1446
sg12
I372
sg13
g14
(S'\x07\xd6\x08\x03\x00\x00\x00\x00\x00\x00'
p1447
tp1448
Rp1449
sg18
VWyatt Jr.
p1450
sg20
S'http://www.tdcj.state.tx.us/death_row/dr_info/wyattwilliamlast.html'
p1451
sa(dp1452
g2
VRobert
p1453
sg4
S'http://www.tdcj.state.tx.us/death_row/dr_info/andersonrobert.jpg'
p1454
sg6
I999084
sg7
I40
sg8
VPotter
p1455
sg10
VWhite
p1456
sg12
I371
sg13
g14
(S'\x07\xd6\x07\x14\x00\x00\x00\x00\x00\x00'
p1457
tp1458
Rp1459
sg18
VAnderson
p1460
sg20
S'http://www.tdcj.state.tx.us/death_row/dr_info/andersonrobertlast.html'
p1461
sa(dp1462
g2
VMauriceo
p1463
sg4
S'http://www.tdcj.state.tx.us/death_row/dr_info/brownmauriceo.jpg'
p1464
sg6
I999234
sg7
I31
sg8
VBexar
p1465
sg10
VBlack
p1466
sg12
I370
sg13
g14
(S'\x07\xd6\x07\x13\x00\x00\x00\x00\x00\x00'
p1467
tp1468
Rp1469
sg18
VBrown
p1470
sg20
S'http://www.tdcj.state.tx.us/death_row/dr_info/brownmauriceolast.html'
p1471
sa(dp1472
g2
VDerrick
p1473
sg4
S'http://www.tdcj.state.tx.us/death_row/dr_info/obrienderrick.jpg'
p1474
sg6
I999131
sg7
I31
sg8
VHarris
p1475
sg10
VBlack
p1476
sg12
I369
sg13
g14
(S'\x07\xd6\x07\x0b\x00\x00\x00\x00\x00\x00'
p1477
tp1478
Rp1479
sg18
VO'Brien
p1480
sg20
S'http://www.tdcj.state.tx.us/death_row/dr_info/obrienderricklast.html'
p1481
sa(dp1482
g2
VAngel
p1483
sg4
S'http://www.tdcj.state.tx.us/death_row/dr_info/resendizangel.html'
p1484
sg6
I999356
sg7
I45
sg8
VHarris
p1485
sg10
VHispanic
p1486
sg12
I368
sg13
g14
(S'\x07\xd6\x06\x1b\x00\x00\x00\x00\x00\x00'
p1487
tp1488
Rp1489
sg18
VResendiz
p1490
sg20
S'http://www.tdcj.state.tx.us/death_row/dr_info/resendizangellast.html'
p1491
sa(dp1492
g2
VLamont
p1493
sg4
S'http://www.tdcj.state.tx.us/death_row/dr_info/reeselamont.html'
p1494
sg6
I999374
sg7
I28
sg8
VTarrant
p1495
sg10
VBlack
p1496
sg12
I367
sg13
g14
(S'\x07\xd6\x06\x14\x00\x00\x00\x00\x00\x00'
p1497
tp1498
Rp1499
sg18
VReese
p1500
sg20
S'http://www.tdcj.state.tx.us/death_row/dr_info/reeselamontlast.html'
p1501
sa(dp1502
g2
VTimothy
p1503
sg4
S'http://www.tdcj.state.tx.us/death_row/dr_info/titsworthtimothy.jpg'
p1504
sg6
I999078
sg7
I34
sg8
VRandall
p1505
sg10
VWhite
p1506
sg12
I366
sg13
g14
(S'\x07\xd6\x06\x06\x00\x00\x00\x00\x00\x00'
p1507
tp1508
Rp1509
sg18
VTitsworth
p1510
sg20
S'http://www.tdcj.state.tx.us/death_row/dr_info/titsworthtimothylast.html'
p1511
sa(dp1512
g2
VJesus
p1513
sg4
S'http://www.tdcj.state.tx.us/death_row/dr_info/aguilarjesus.jpg'
p1514
sg6
I999191
sg7
I42
sg8
VCameron
p1515
sg10
VHispanic
p1516
sg12
I365
sg13
g14
(S'\x07\xd6\x05\x18\x00\x00\x00\x00\x00\x00'
p1517
tp1518
Rp1519
sg18
VAguilar
p1520
sg20
S'http://www.tdcj.state.tx.us/death_row/dr_info/aguilarjesuslast.html'
p1521
sa(dp1522
g2
VJermaine
p1523
sg4
S'http://www.tdcj.state.tx.us/death_row/dr_info/herronjermaine.html'
p1524
sg6
I999304
sg7
I27
sg8
VRefugio
p1525
sg10
VBlack
p1526
sg12
I364
sg13
g14
(S'\x07\xd6\x05\x11\x00\x00\x00\x00\x00\x00'
p1527
tp1528
Rp1529
sg18
VHerron
p1530
sg20
S'http://www.tdcj.state.tx.us/death_row/dr_info/herronjermainelast.html'
p1531
sa(dp1532
g2
VJackie
p1533
sg4
S'http://www.tdcj.state.tx.us/death_row/dr_info/wilsonjackie.jpg'
p1534
sg6
I957
sg7
I39
sg8
VDallas
p1535
sg10
VWhite
p1536
sg12
I363
sg13
g14
(S'\x07\xd6\x05\x04\x00\x00\x00\x00\x00\x00'
p1537
tp1538
Rp1539
sg18
VWilson
p1540
sg20
S'http://www.tdcj.state.tx.us/death_row/dr_info/wilsonjackielast.html'
p1541
sa(dp1542
g2
VKevin
p1543
sg4
S'http://www.tdcj.state.tx.us/death_row/dr_info/kincykevin.jpg'
p1544
sg6
I999179
sg7
I38
sg8
VHarris
p1545
sg10
VBlack
p1546
sg12
I362
sg13
g14
(S'\x07\xd6\x03\x1d\x00\x00\x00\x00\x00\x00'
p1547
tp1548
Rp1549
sg18
VKincy
p1550
sg20
S'http://www.tdcj.state.tx.us/death_row/dr_info/kincykevinlast.html'
p1551
sa(dp1552
g2
VRobert
p1553
sg4
S'http://www.tdcj.state.tx.us/death_row/dr_info/salazarrobert.html'
p1554
sg6
I999303
sg7
I27
sg8
VLubbock
p1555
sg10
VHispanic
p1556
sg12
I361
sg13
g14
(S'\x07\xd6\x03\x16\x00\x00\x00\x00\x00\x00'
p1557
tp1558
Rp1559
sg18
VSalazar Jr.
p1560
sg20
S'http://www.tdcj.state.tx.us/death_row/dr_info/salazarrobertlast.html'
p1561
sa(dp1562
g2
VTommie
p1563
sg4
S'http://www.tdcj.state.tx.us/death_row/dr_info/hughestommie.html'
p1564
sg6
I999273
sg7
I31
sg8
VDallas
p1565
sg10
VBlack
p1566
sg12
I360
sg13
g14
(S'\x07\xd6\x03\x0f\x00\x00\x00\x00\x00\x00'
p1567
tp1568
Rp1569
sg18
VHughes
p1570
sg20
S'http://www.tdcj.state.tx.us/death_row/dr_info/hughestommielast.html'
p1571
sa(dp1572
g2
VClyde
p1573
sg4
S'http://www.tdcj.state.tx.us/death_row/dr_info/smithclyde.jpg'
p1574
sg6
I999088
sg7
I32
sg8
VHarris
p1575
sg10
VBlack
p1576
sg12
I359
sg13
g14
(S'\x07\xd6\x02\x0f\x00\x00\x00\x00\x00\x00'
p1577
tp1578
Rp1579
sg18
VSmith Jr.
p1580
sg20
S'http://www.tdcj.state.tx.us/death_row/dr_info/smithclydelast.html'
p1581
sa(dp1582
g2
VRobert
p1583
sg4
S'http://www.tdcj.state.tx.us/death_row/dr_info/nevillerobert.html'
p1584
sg6
I999293
sg7
I31
sg8
VTarrant
p1585
sg10
VWhite
p1586
sg12
I358
sg13
g14
(S'\x07\xd6\x02\x08\x00\x00\x00\x00\x00\x00'
p1587
tp1588
Rp1589
sg18
VNeville Jr.
p1590
sg20
S'http://www.tdcj.state.tx.us/death_row/dr_info/nevillerobertlast.html'
p1591
sa(dp1592
g2
VJaime
p1593
sg4
S'http://www.tdcj.state.tx.us/death_row/dr_info/elizaldejaime.jpg'
p1594
sg6
I999230
sg7
I34
sg8
VHarris
p1595
sg10
VHispanic
p1596
sg12
I357
sg13
g14
(S'\x07\xd6\x01\x1f\x00\x00\x00\x00\x00\x00'
p1597
tp1598
Rp1599
sg18
VElizalde Jr.
p1600
sg20
S'http://www.tdcj.state.tx.us/death_row/dr_info/elizaldejaimelast.html'
p1601
sa(dp1602
g2
VMarion
p1603
sg4
S'http://www.tdcj.state.tx.us/death_row/dr_info/dudleymarion.jpg'
p1604
sg6
I999136
sg7
I33
sg8
VHarris
p1605
sg10
VBlack
p1606
sg12
I356
sg13
g14
(S'\x07\xd6\x01\x19\x00\x00\x00\x00\x00\x00'
p1607
tp1608
Rp1609
sg18
VDudley
p1610
sg20
S'http://www.tdcj.state.tx.us/death_row/dr_info/no_last_statement.html'
p1611
sa(dp1612
g2
VShannon
p1613
sg4
S'http://www.tdcj.state.tx.us/death_row/dr_info/thomasshannon.jpg'
p1614
sg6
I999213
sg7
I34
sg8
VHarris
p1615
sg10
VBlack
p1616
sg12
I355
sg13
g14
(S'\x07\xd5\x0b\x10\x00\x00\x00\x00\x00\x00'
p1617
tp1618
Rp1619
sg18
VThomas
p1620
sg20
S'http://www.tdcj.state.tx.us/death_row/dr_info/thomasshannonlast.html'
p1621
sa(dp1622
g2
VRobert
p1623
sg4
S'http://www.tdcj.state.tx.us/death_row/dr_info/rowellrobert.html'
p1624
sg6
I999104
sg7
I50
sg8
VHarris
p1625
sg10
VWhite
p1626
sg12
I354
sg13
g14
(S'\x07\xd5\x0b\x0f\x00\x00\x00\x00\x00\x00'
p1627
tp1628
Rp1629
sg18
VRowell
p1630
sg20
S'http://www.tdcj.state.tx.us/death_row/dr_info/rowellrobertlast.html'
p1631
sa(dp1632
g2
VCharles
p1633
sg4
S'http://www.tdcj.state.tx.us/death_row/dr_info/thackercharles.jpg'
p1634
sg6
I999103
sg7
I37
sg8
VHarris
p1635
sg10
VWhite
p1636
sg12
I353
sg13
g14
(S'\x07\xd5\x0b\t\x00\x00\x00\x00\x00\x00'
p1637
tp1638
Rp1639
sg18
VThacker
p1640
sg20
S'http://www.tdcj.state.tx.us/death_row/dr_info/thackercharleslast.html'
p1641
sa(dp1642
g2
VMelvin
p1643
sg4
S'http://www.tdcj.state.tx.us/death_row/dr_info/whitemelvin.html'
p1644
sg6
I999317
sg7
I55
sg8
VPecos
p1645
sg10
VWhite
p1646
sg12
I352
sg13
g14
(S'\x07\xd5\x0b\x03\x00\x00\x00\x00\x00\x00'
p1647
tp1648
Rp1649
sg18
VWhite
p1650
sg20
S'http://www.tdcj.state.tx.us/death_row/dr_info/whitemelvinlast.html'
p1651
sa(dp1652
g2
VLuis
p1653
sg4
S'http://www.tdcj.state.tx.us/death_row/dr_info/ramirezluis.html'
p1654
sg6
I999309
sg7
I42
sg8
VTom Green
p1655
sg10
VHispanic
p1656
sg12
I351
sg13
g14
(S'\x07\xd5\n\x14\x00\x00\x00\x00\x00\x00'
p1657
tp1658
Rp1659
sg18
VRamirez
p1660
sg20
S'http://www.tdcj.state.tx.us/death_row/dr_info/ramirezluislast.html'
p1661
sa(dp1662
g2
VRonald
p1663
sg4
S'http://www.tdcj.state.tx.us/death_row/dr_info/howardronald.jpg'
p1664
sg6
I999069
sg7
I32
sg8
VTravis
p1665
sg10
VBlack
p1666
sg12
I350
sg13
g14
(S'\x07\xd5\n\x06\x00\x00\x00\x00\x00\x00'
p1667
tp1668
Rp1669
sg18
VHoward
p1670
sg20
S'http://www.tdcj.state.tx.us/death_row/dr_info/howardronaldlast.html'
p1671
sa(dp1672
g2
VFrancis
p1673
sg4
S'http://www.tdcj.state.tx.us/death_row/dr_info/newtonfrancis.jpg'
p1674
sg6
I922
sg7
I40
sg8
VHarris
p1675
sg10
VBlack
p1676
sg12
I349
sg13
g14
(S'\x07\xd5\t\x0e\x00\x00\x00\x00\x00\x00'
p1677
tp1678
Rp1679
sg18
VNewton
p1680
sg20
S'http://www.tdcj.state.tx.us/death_row/dr_info/no_last_statement.html'
p1681
sa(dp1682
g2
VRobert
p1683
sg4
S'http://www.tdcj.state.tx.us/death_row/dr_info/shieldsrobert.jpg'
p1684
sg6
I999166
sg7
I30
sg8
VGalveston
p1685
sg10
VWhite
p1686
sg12
I348
sg13
g14
(S'\x07\xd5\x08\x17\x00\x00\x00\x00\x00\x00'
p1687
tp1688
Rp1689
sg18
VShields
p1690
sg20
S'http://www.tdcj.state.tx.us/death_row/dr_info/no_last_statement.html'
p1691
sa(dp1692
g2
VGary
p1693
sg4
S'http://www.tdcj.state.tx.us/death_row/dr_info/sterlinggary.jpg'
p1694
sg6
I931
sg7
I38
sg8
VNavarro
p1695
sg10
VBlack
p1696
sg12
I347
sg13
g14
(S'\x07\xd5\x08\n\x00\x00\x00\x00\x00\x00'
p1697
tp1698
Rp1699
sg18
VSterling
p1700
sg20
S'http://www.tdcj.state.tx.us/death_row/dr_info/sterlinggarylast.html'
p1701
sa(dp1702
g2
VDavid
p1703
sg4
S'http://www.tdcj.state.tx.us/death_row/dr_info/martinezdavid.html'
p1704
sg6
I999288
sg7
I29
sg8
VTravis
p1705
sg10
VHispanic
p1706
sg12
I346
sg13
g14
(S'\x07\xd5\x07\x1c\x00\x00\x00\x00\x00\x00'
p1707
tp1708
Rp1709
sg18
VMartinez
p1710
sg20
S'http://www.tdcj.state.tx.us/death_row/dr_info/martinezdavidlast999288.html'
p1711
sa(dp1712
g2
VAlexander
p1713
sg4
S'http://www.tdcj.state.tx.us/death_row/dr_info/martinezalexander.html'
p1714
sg6
I999438
sg7
I28
sg8
VHarris
p1715
sg10
VHispanic
p1716
sg12
I345
sg13
g14
(S'\x07\xd5\x06\x07\x00\x00\x00\x00\x00\x00'
p1717
tp1718
Rp1719
sg18
VMartinez
p1720
sg20
S'http://www.tdcj.state.tx.us/death_row/dr_info/martinezalexanderlast.html'
p1721
sa(dp1722
g2
VRichard
p1723
sg4
S'http://www.tdcj.state.tx.us/death_row/dr_info/cartwrightrichard.jpg'
p1724
sg6
I999224
sg7
I31
sg8
VNueces
p1725
sg10
VWhite
p1726
sg12
I344
sg13
g14
(S'\x07\xd5\x05\x13\x00\x00\x00\x00\x00\x00'
p1727
tp1728
Rp1729
sg18
VCartwright
p1730
sg20
S'http://www.tdcj.state.tx.us/death_row/dr_info/cartwrightrichardlast.html'
p1731
sa(dp1732
g2
VBryan
p1733
sg4
S'http://www.tdcj.state.tx.us/death_row/dr_info/wolfebryan.jpg'
p1734
sg6
I999079
sg7
I44
sg8
VJefferson
p1735
sg10
VBlack
p1736
sg12
I343
sg13
g14
(S'\x07\xd5\x05\x12\x00\x00\x00\x00\x00\x00'
p1737
tp1738
Rp1739
sg18
VWolfe
p1740
sg20
S'http://www.tdcj.state.tx.us/death_row/dr_info/wolfebryanlast.html'
p1741
sa(dp1742
g2
VLonnie
p1743
sg4
S'http://www.tdcj.state.tx.us/death_row/dr_info/pursleylonnie.html'
p1744
sg6
I999294
sg7
I43
sg8
VPolk
p1745
sg10
VWhite
p1746
sg12
I342
sg13
g14
(S'\x07\xd5\x05\x03\x00\x00\x00\x00\x00\x00'
p1747
tp1748
Rp1749
sg18
VPursley
p1750
sg20
S'http://www.tdcj.state.tx.us/death_row/dr_info/pursleylonnielast.html'
p1751
sa(dp1752
g2
VDouglas
p1753
sg4
S'http://www.tdcj.state.tx.us/death_row/dr_info/robertsdouglas.jpg'
p1754
sg6
I999218
sg7
I42
sg8
VKendall
p1755
sg10
VWhite
p1756
sg12
I341
sg13
g14
(S'\x07\xd5\x04\x14\x00\x00\x00\x00\x00\x00'
p1757
tp1758
Rp1759
sg18
VRoberts
p1760
sg20
S'http://www.tdcj.state.tx.us/death_row/dr_info/robertsdouglaslast.html'
p1761
sa(dp1762
g2
VGeorge
p1763
sg4
S'http://www.tdcj.state.tx.us/death_row/dr_info/hoppergeorge.jpg'
p1764
sg6
I999037
sg7
I49
sg8
VDallas
p1765
sg10
VWhite
p1766
sg12
I340
sg13
g14
(S'\x07\xd5\x03\x08\x00\x00\x00\x00\x00\x00'
p1767
tp1768
Rp1769
sg18
VHopper
p1770
sg20
S'http://www.tdcj.state.tx.us/death_row/dr_info/hoppergeorgelast.html'
p1771
sa(dp1772
g2
VDennis
p1773
sg4
S'http://www.tdcj.state.tx.us/death_row/dr_info/bagwelldennis.jpg'
p1774
sg6
I999209
sg7
I41
sg8
VAtascosa
p1775
sg10
VWhite
p1776
sg12
I339
sg13
g14
(S'\x07\xd5\x02\x11\x00\x00\x00\x00\x00\x00'
p1777
tp1778
Rp1779
sg18
VBagwell
p1780
sg20
S'http://www.tdcj.state.tx.us/death_row/dr_info/bagwelldennislast.html'
p1781
sa(dp1782
g2
VTroy
p1783
sg4
S'http://www.tdcj.state.tx.us/death_row/dr_info/kunkletroy.jpg'
p1784
sg6
I784
sg7
I38
sg8
VNueces
p1785
sg10
VWhite
p1786
sg12
I338
sg13
g14
(S'\x07\xd5\x01\x19\x00\x00\x00\x00\x00\x00'
p1787
tp1788
Rp1789
sg18
VKunkle
p1790
sg20
S'http://www.tdcj.state.tx.us/death_row/dr_info/kunkletroylast.html'
p1791
sa(dp1792
g2
VJames
p1793
sg4
S'http://www.tdcj.state.tx.us/death_row/dr_info/porterjames.html'
p1794
sg6
I999378
sg7
I33
sg8
VBowie
p1795
sg10
VWhite
p1796
sg12
I337
sg13
g14
(S'\x07\xd5\x01\x04\x00\x00\x00\x00\x00\x00'
p1797
tp1798
Rp1799
sg18
VPorter
p1800
sg20
S'http://www.tdcj.state.tx.us/death_row/dr_info/porterjameslast.html'
p1801
sa(dp1802
g2
VAnthony
p1803
sg4
S'http://www.tdcj.state.tx.us/death_row/dr_info/fuentesanthony.jpg'
p1804
sg6
I999215
sg7
I30
sg8
VHarris
p1805
sg10
VHispanic
p1806
sg12
I336
sg13
g14
(S'\x07\xd4\x0b\x11\x00\x00\x00\x00\x00\x00'
p1807
tp1808
Rp1809
sg18
VFuentes
p1810
sg20
S'http://www.tdcj.state.tx.us/death_row/dr_info/fuentesanthonylast.html'
p1811
sa(dp1812
g2
VFrederick
p1813
sg4
S'http://www.tdcj.state.tx.us/death_row/dr_info/mcwilliamsfrederick.html'
p1814
sg6
I999242
sg7
I30
sg8
VHarris
p1815
sg10
VBlack
p1816
sg12
I335
sg13
g14
(S'\x07\xd4\x0b\n\x00\x00\x00\x00\x00\x00'
p1817
tp1818
Rp1819
sg18
VMcWilliams
p1820
sg20
S'http://www.tdcj.state.tx.us/death_row/dr_info/mcwilliamsfredericklast.html'
p1821
sa(dp1822
g2
VDemarco
p1823
sg4
S'http://www.tdcj.state.tx.us/death_row/dr_info/mccullumdemarco.jpg'
p1824
sg6
I999180
sg7
I30
sg8
VHarris
p1825
sg10
VBlack
p1826
sg12
I334
sg13
g14
(S'\x07\xd4\x0b\t\x00\x00\x00\x00\x00\x00'
p1827
tp1828
Rp1829
sg18
VMcCullum
p1830
sg20
S'http://www.tdcj.state.tx.us/death_row/dr_info/mccullumdemarcolast.html'
p1831
sa(dp1832
g2
VRobert
p1833
sg4
S'http://www.tdcj.state.tx.us/death_row/dr_info/morrowrobert.html'
p1834
sg6
I999244
sg7
I47
sg8
VLiberty
p1835
sg10
VWhite
p1836
sg12
I333
sg13
g14
(S'\x07\xd4\x0b\x04\x00\x00\x00\x00\x00\x00'
p1837
tp1838
Rp1839
sg18
VMorrow
p1840
sg20
S'http://www.tdcj.state.tx.us/death_row/dr_info/morrowrobertlast.html'
p1841
sa(dp1842
g2
VLorenzo
p1843
sg4
S'http://www.tdcj.state.tx.us/death_row/dr_info/morrislorenzo.jpg'
p1844
sg6
I999038
sg7
I52
sg8
VHarris
p1845
sg10
VBlack
p1846
sg12
I332
sg13
g14
(S'\x07\xd4\x0b\x02\x00\x00\x00\x00\x00\x00'
p1847
tp1848
Rp1849
sg18
VMorris
p1850
sg20
S'http://www.tdcj.state.tx.us/death_row/dr_info/no_last_statement.html'
p1851
sa(dp1852
g2
VDominique
p1853
sg4
S'http://www.tdcj.state.tx.us/death_row/dr_info/greendominique.jpg'
p1854
sg6
I999068
sg7
I30
sg8
VHarris
p1855
sg10
VBlack
p1856
sg12
I331
sg13
g14
(S'\x07\xd4\n\x1a\x00\x00\x00\x00\x00\x00'
p1857
tp1858
Rp1859
sg18
VGreen
p1860
sg20
S'http://www.tdcj.state.tx.us/death_row/dr_info/greendominiquelast.html'
p1861
sa(dp1862
g2
VRicky
p1863
sg4
S'http://www.tdcj.state.tx.us/death_row/dr_info/morrowricky.jpg'
p1864
sg6
I753
sg7
I53
sg8
VDallas
p1865
sg10
VWhite
p1866
sg12
I330
sg13
g14
(S'\x07\xd4\n\x14\x00\x00\x00\x00\x00\x00'
p1867
tp1868
Rp1869
sg18
VMorrow
p1870
sg20
S'http://www.tdcj.state.tx.us/death_row/dr_info/morrowrickylast.html'
p1871
sa(dp1872
g2
VDonald
p1873
sg4
S'http://www.tdcj.state.tx.us/death_row/dr_info/aldrichdonald.jpg'
p1874
sg6
I999113
sg7
I39
sg8
VKerr
p1875
sg10
VWhite
p1876
sg12
I329
sg13
g14
(S'\x07\xd4\n\x0c\x00\x00\x00\x00\x00\x00'
p1877
tp1878
Rp1879
sg18
VAldrich
p1880
sg20
S'http://www.tdcj.state.tx.us/death_row/dr_info/aldrichdonaldlast.html'
p1881
sa(dp1882
g2
VPeter
p1883
sg4
S'http://www.tdcj.state.tx.us/death_row/dr_info/minielpeter.jpg'
p1884
sg6
I920
sg7
I42
sg8
VHarris
p1885
sg10
VHispanic
p1886
sg12
I328
sg13
g14
(S'\x07\xd4\n\x06\x00\x00\x00\x00\x00\x00'
p1887
tp1888
Rp1889
sg18
VMiniel
p1890
sg20
S'http://www.tdcj.state.tx.us/death_row/dr_info/minielpeterlast.html'
p1891
sa(dp1892
g2
VEdward
p1893
sg4
S'http://www.tdcj.state.tx.us/death_row/dr_info/greenedward.jpg'
p1894
sg6
I999073
sg7
I30
sg8
VHarris
p1895
sg10
VBlack
p1896
sg12
I327
sg13
g14
(S'\x07\xd4\n\x05\x00\x00\x00\x00\x00\x00'
p1897
tp1898
Rp1899
sg18
VGreen
p1900
sg20
S'http://www.tdcj.state.tx.us/death_row/dr_info/greenedwardlast.html'
p1901
sa(dp1902
g2
VAndrew
p1903
sg4
S'http://www.tdcj.state.tx.us/death_row/dr_info/floresandrew.jpg'
p1904
sg6
I999100
sg7
I32
sg8
VBexar
p1905
sg10
VHispanic
p1906
sg12
I326
sg13
g14
(S'\x07\xd4\t\x15\x00\x00\x00\x00\x00\x00'
p1907
tp1908
Rp1909
sg18
VFlores
p1910
sg20
S'http://www.tdcj.state.tx.us/death_row/dr_info/floresandrewlast.html'
p1911
sa(dp1912
g2
VJames
p1913
sg4
S'http://www.tdcj.state.tx.us/death_row/dr_info/allridgejames.jpg'
p1914
sg6
I870
sg7
I41
sg8
VTarrant
p1915
sg10
VBlack
p1916
sg12
I325
sg13
g14
(S'\x07\xd4\x08\x1a\x00\x00\x00\x00\x00\x00'
p1917
tp1918
Rp1919
sg18
VAllridge III
p1920
sg20
S'http://www.tdcj.state.tx.us/death_row/dr_info/allridgejameslast.html'
p1921
sa(dp1922
g2
VJasen
p1923
sg4
S'http://www.tdcj.state.tx.us/death_row/dr_info/busbyjasen.jpg'
p1924
sg6
I999201
sg7
I28
sg8
VCherokee
p1925
sg10
VWhite
p1926
sg12
I324
sg13
g14
(S'\x07\xd4\x08\x19\x00\x00\x00\x00\x00\x00'
p1927
tp1928
Rp1929
sg18
VBusby
p1930
sg20
S'http://www.tdcj.state.tx.us/death_row/dr_info/busbyjasenlast.html'
p1931
sa(dp1932
g2
VDavid
p1933
sg4
S'http://www.tdcj.state.tx.us/death_row/dr_info/harrisdavid.jpg'
p1934
sg6
I827
sg7
I43
sg8
VJefferson
p1935
sg10
VWhite
p1936
sg12
I323
sg13
g14
(S'\x07\xd4\x06\x1e\x00\x00\x00\x00\x00\x00'
p1937
tp1938
Rp1939
sg18
VHarris
p1940
sg20
S'http://www.tdcj.state.tx.us/death_row/dr_info/harrisdavidlast.html'
p1941
sa(dp1942
g2
VKelsey
p1943
sg4
S'http://www.tdcj.state.tx.us/death_row/dr_info/pattersonkelsey.jpg'
p1944
sg6
I999065
sg7
I50
sg8
VAnderson
p1945
sg10
VBlack
p1946
sg12
I322
sg13
g14
(S'\x07\xd4\x05\x12\x00\x00\x00\x00\x00\x00'
p1947
tp1948
Rp1949
sg18
VPatterson
p1950
sg20
S'http://www.tdcj.state.tx.us/death_row/dr_info/pattersonkelseylast.html'
p1951
sa(dp1952
g2
VMarcus
p1953
sg4
S'http://www.tdcj.state.tx.us/death_row/dr_info/cottonmarcus.html'
p1954
sg6
I999252
sg7
I29
sg8
VHarris
p1955
sg10
VBlack
p1956
sg12
I321
sg13
g14
(S'\x07\xd4\x03\x03\x00\x00\x00\x00\x00\x00'
p1957
tp1958
Rp1959
sg18
VCotton
p1960
sg20
S'http://www.tdcj.state.tx.us/death_row/dr_info/cottonmarcuslast.html'
p1961
sa(dp1962
g2
VCameron
p1963
sg4
S'http://www.tdcj.state.tx.us/death_row/dr_info/willinghamcameron.jpg'
p1964
sg6
I999041
sg7
I36
sg8
VNavarro
p1965
sg10
VWhite
p1966
sg12
I320
sg13
g14
(S'\x07\xd4\x02\x11\x00\x00\x00\x00\x00\x00'
p1967
tp1968
Rp1969
sg18
VWillingham
p1970
sg20
S'http://www.tdcj.state.tx.us/death_row/dr_info/willinghamcameronlast.html'
p1971
sa(dp1972
g2
VBobby
p1973
sg4
S'http://www.tdcj.state.tx.us/death_row/dr_info/hopkinsbobby.jpg'
p1974
sg6
I999101
sg7
I36
sg8
VJohnson
p1975
sg10
VBlack
p1976
sg12
I319
sg13
g14
(S'\x07\xd4\x02\x0c\x00\x00\x00\x00\x00\x00'
p1977
tp1978
Rp1979
sg18
VHopkins
p1980
sg20
S'http://www.tdcj.state.tx.us/death_row/dr_info/no_last_statement.html'
p1981
sa(dp1982
g2
VEdward
p1983
sg4
S'http://www.tdcj.state.tx.us/death_row/dr_info/lagroneedward.jpg'
p1984
sg6
I999083
sg7
I46
sg8
VTarrant
p1985
sg10
VBlack
p1986
sg12
I318
sg13
g14
(S'\x07\xd4\x02\x0b\x00\x00\x00\x00\x00\x00'
p1987
tp1988
Rp1989
sg18
VLagrone
p1990
sg20
S'http://www.tdcj.state.tx.us/death_row/dr_info/lagroneedwardlast.html'
p1991
sa(dp1992
g2
VBilly
p1993
sg4
S'http://www.tdcj.state.tx.us/death_row/dr_info/vickersbilly.jpg'
p1994
sg6
I999087
sg7
I58
sg8
VLamar
p1995
sg10
VWhite
p1996
sg12
I317
sg13
g14
(S'\x07\xd4\x01\x1c\x00\x00\x00\x00\x00\x00'
p1997
tp1998
Rp1999
sg18
VVickers
p2000
sg20
S'http://www.tdcj.state.tx.us/death_row/dr_info/vickersbillylast.html'
p2001
sa(dp2002
g2
VKevin
p2003
sg4
S'http://www.tdcj.state.tx.us/death_row/dr_info/zimmermankevin.jpg'
p2004
sg6
I977
sg7
I42
sg8
VJefferson
p2005
sg10
VWhite
p2006
sg12
I316
sg13
g14
(S'\x07\xd4\x01\x15\x00\x00\x00\x00\x00\x00'
p2007
tp2008
Rp2009
sg18
VZimmerman
p2010
sg20
S'http://www.tdcj.state.tx.us/death_row/dr_info/zimmermankevinlast.html'
p2011
sa(dp2012
g2
VKenneth
p2013
sg4
S'http://www.tdcj.state.tx.us/death_row/dr_info/brucekenneth.jpg'
p2014
sg6
I999023
sg7
I32
sg8
VCollin
p2015
sg10
VBlack
p2016
sg12
I315
sg13
g14
(S'\x07\xd4\x01\x0e\x00\x00\x00\x00\x00\x00'
p2017
tp2018
Rp2019
sg18
VBruce
p2020
sg20
S'http://www.tdcj.state.tx.us/death_row/dr_info/brucekennethlast.html'
p2021
sa(dp2022
g2
VYnobe
p2023
sg4
S'http://www.tdcj.state.tx.us/death_row/dr_info/matthewsynobe.html'
p2024
sg6
I999387
sg7
I27
sg8
VBrazos
p2025
sg10
VBlack
p2026
sg12
I314
sg13
g14
(S'\x07\xd4\x01\x06\x00\x00\x00\x00\x00\x00'
p2027
tp2028
Rp2029
sg18
VMatthews
p2030
sg20
S'http://www.tdcj.state.tx.us/death_row/dr_info/no_last_statement.html'
p2031
sa(dp2032
g2
VIvan
p2033
sg4
S'http://www.tdcj.state.tx.us/death_row/dr_info/murphyivan.jpg'
p2034
sg6
I989
sg7
I38
sg8
VGrayson
p2035
sg10
VWhite
p2036
sg12
I313
sg13
g14
(S'\x07\xd3\x0c\x04\x00\x00\x00\x00\x00\x00'
p2037
tp2038
Rp2039
sg18
VMurphy
p2040
sg20
S'http://www.tdcj.state.tx.us/death_row/dr_info/murphyivanlast.html'
p2041
sa(dp2042
g2
VRichard
p2043
sg4
S'http://www.tdcj.state.tx.us/death_row/dr_info/duncanrichard.jpg'
p2044
sg6
I999153
sg7
I61
sg8
VHarris
p2045
sg10
VWhite
p2046
sg12
I312
sg13
g14
(S'\x07\xd3\x0c\x03\x00\x00\x00\x00\x00\x00'
p2047
tp2048
Rp2049
sg18
VDuncan
p2050
sg20
S'http://www.tdcj.state.tx.us/death_row/dr_info/duncanrichardlast.html'
p2051
sa(dp2052
g2
VRobert
p2053
sg4
S'http://www.tdcj.state.tx.us/death_row/dr_info/henryrobert.jpg'
p2054
sg6
I999129
sg7
I41
sg8
VSan Patricio
p2055
sg10
VWhite
p2056
sg12
I311
sg13
g14
(S'\x07\xd3\x0b\x14\x00\x00\x00\x00\x00\x00'
p2057
tp2058
Rp2059
sg18
VHenry
p2060
sg20
S'http://www.tdcj.state.tx.us/death_row/dr_info/no_last_statement.html'
p2061
sa(dp2062
g2
VLarry
p2063
sg4
S'http://www.tdcj.state.tx.us/death_row/dr_info/hayeslarry.html'
p2064
sg6
I999358
sg7
I54
sg8
VMontgomery
p2065
sg10
VWhite
p2066
sg12
I310
sg13
g14
(S'\x07\xd3\t\n\x00\x00\x00\x00\x00\x00'
p2067
tp2068
Rp2069
sg18
VHayes
p2070
sg20
S'http://www.tdcj.state.tx.us/death_row/dr_info/hayeslarrylast.html'
p2071
sa(dp2072
g2
VAllen
p2073
sg4
S'http://www.tdcj.state.tx.us/death_row/dr_info/janeckaallen.jpg'
p2074
sg6
I684
sg7
I53
sg8
VHarris
p2075
sg10
VWhite
p2076
sg12
I309
sg13
g14
(S'\x07\xd3\x07\x18\x00\x00\x00\x00\x00\x00'
p2077
tp2078
Rp2079
sg18
VJanecka
p2080
sg20
S'http://www.tdcj.state.tx.us/death_row/dr_info/janeckaallenlast.html'
p2081
sa(dp2082
g2
VCedric
p2083
sg4
S'http://www.tdcj.state.tx.us/death_row/dr_info/ransomcedric.jpg'
p2084
sg6
I999050
sg7
I29
sg8
VTarrant
p2085
sg10
VBlack
p2086
sg12
I308
sg13
g14
(S'\x07\xd3\x07\x17\x00\x00\x00\x00\x00\x00'
p2087
tp2088
Rp2089
sg18
VRansom
p2090
sg20
S'http://www.tdcj.state.tx.us/death_row/dr_info/ransomcedriclast.html'
p2091
sa(dp2092
g2
VChristopher
p2093
sg4
S'http://www.tdcj.state.tx.us/death_row/dr_info/blackchristopher.html'
p2094
sg6
I999277
sg7
I43
sg8
VBell
p2095
sg10
VBlack
p2096
sg12
I307
sg13
g14
(S'\x07\xd3\x07\t\x00\x00\x00\x00\x00\x00'
p2097
tp2098
Rp2099
sg18
VBlack, Sr.
p2100
sg20
S'http://www.tdcj.state.tx.us/death_row/dr_info/no_last_statement.html'
p2101
sa(dp2102
g2
VHilton
p2103
sg4
S'http://www.tdcj.state.tx.us/death_row/dr_info/crawfordhilton.jpg'
p2104
sg6
I999200
sg7
I64
sg8
VMontgomery
p2105
sg10
VWhite
p2106
sg12
I306
sg13
g14
(S'\x07\xd3\x07\x02\x00\x00\x00\x00\x00\x00'
p2107
tp2108
Rp2109
sg18
VCrawford
p2110
sg20
S'http://www.tdcj.state.tx.us/death_row/dr_info/crawfordhiltonlast.html'
p2111
sa(dp2112
g2
VKia
p2113
sg4
S'http://www.tdcj.state.tx.us/death_row/dr_info/johnsonkia.jpg'
p2114
sg6
I999139
sg7
I38
sg8
VBexar
p2115
sg10
VBlack
p2116
sg12
I305
sg13
g14
(S'\x07\xd3\x06\x0b\x00\x00\x00\x00\x00\x00'
p2117
tp2118
Rp2119
sg18
VJohnson
p2120
sg20
S'http://www.tdcj.state.tx.us/death_row/dr_info/johnsonkialast.html'
p2121
sa(dp2122
g2
VBruce
p2123
sg4
S'http://www.tdcj.state.tx.us/death_row/dr_info/jacobsbruce.jpg'
p2124
sg6
I876
sg7
I56
sg8
VDallas
p2125
sg10
VWhite
p2126
sg12
I304
sg13
g14
(S'\x07\xd3\x05\x0f\x00\x00\x00\x00\x00\x00'
p2127
tp2128
Rp2129
sg18
VJacobs
p2130
sg20
S'http://www.tdcj.state.tx.us/death_row/dr_info/jacobsbrucelast.html'
p2131
sa(dp2132
g2
VRoger
p2133
sg4
S'http://www.tdcj.state.tx.us/death_row/dr_info/vaughnroger.jpg'
p2134
sg6
I999029
sg7
I48
sg8
VWilbarger
p2135
sg10
VWhite
p2136
sg12
I303
sg13
g14
(S'\x07\xd3\x05\x06\x00\x00\x00\x00\x00\x00'
p2137
tp2138
Rp2139
sg18
VVaughn
p2140
sg20
S'http://www.tdcj.state.tx.us/death_row/dr_info/no_last_statement.html'
p2141
sa(dp2142
g2
VJohn
p2143
sg4
S'http://www.tdcj.state.tx.us/death_row/dr_info/chavezjohn.jpg'
p2144
sg6
I999186
sg7
I34
sg8
VDallas
p2145
sg10
VHispanic
p2146
sg12
I302
sg13
g14
(S'\x07\xd3\x04\x16\x00\x00\x00\x00\x00\x00'
p2147
tp2148
Rp2149
sg18
VChavez
p2150
sg20
S'http://www.tdcj.state.tx.us/death_row/dr_info/chavezjohnlast.html'
p2151
sa(dp2152
g2
VJames
p2153
sg4
S'http://www.tdcj.state.tx.us/death_row/dr_info/colburnjames.jpg'
p2154
sg6
I999169
sg7
I43
sg8
VMontgomery
p2155
sg10
VWhite
p2156
sg12
I301
sg13
g14
(S'\x07\xd3\x03\x1a\x00\x00\x00\x00\x00\x00'
p2157
tp2158
Rp2159
sg18
VColburn
p2160
sg20
S'http://www.tdcj.state.tx.us/death_row/dr_info/colburnjameslast.html'
p2161
sa(dp2162
g2
VKeith
p2163
sg4
S'http://www.tdcj.state.tx.us/death_row/dr_info/claykeith.html'
p2164
sg6
I999238
sg7
I35
sg8
VHarris
p2165
sg10
VBlack
p2166
sg12
I300
sg13
g14
(S'\x07\xd3\x03\x14\x00\x00\x00\x00\x00\x00'
p2167
tp2168
Rp2169
sg18
VClay
p2170
sg20
S'http://www.tdcj.state.tx.us/death_row/dr_info/claykeithlast.html'
p2171
sa(dp2172
g2
VBobby
p2173
sg4
S'http://www.tdcj.state.tx.us/death_row/dr_info/cookbobby.jpg'
p2174
sg6
I999094
sg7
I41
sg8
VAnderson
p2175
sg10
VWhite
p2176
sg12
I299
sg13
g14
(S'\x07\xd3\x03\x0b\x00\x00\x00\x00\x00\x00'
p2177
tp2178
Rp2179
sg18
VCook
p2180
sg20
S'http://www.tdcj.state.tx.us/death_row/dr_info/cookbobbylast.html'
p2181
sa(dp2182
g2
VRichard
p2183
sg4
S'http://www.tdcj.state.tx.us/death_row/dr_info/williamsrichard.html'
p2184
sg6
I999251
sg7
I33
sg8
VHarris
p2185
sg10
VBlack
p2186
sg12
I298
sg13
g14
(S'\x07\xd3\x02\x19\x00\x00\x00\x00\x00\x00'
p2187
tp2188
Rp2189
sg18
VWilliams
p2190
sg20
S'http://www.tdcj.state.tx.us/death_row/dr_info/williamsrichardlast.html'
p2191
sa(dp2192
g2
VHenry
p2193
sg4
S'http://www.tdcj.state.tx.us/death_row/dr_info/dunnhenry.jpg'
p2194
sg6
I999165
sg7
I28
sg8
VSmith
p2195
sg10
VBlack
p2196
sg12
I297
sg13
g14
(S'\x07\xd3\x02\x06\x00\x00\x00\x00\x00\x00'
p2197
tp2198
Rp2199
sg18
VDunn, Jr.
p2200
sg20
S'http://www.tdcj.state.tx.us/death_row/dr_info/dunnhenrylast.html'
p2201
sa(dp2202
g2
VJohn
p2203
sg4
S'http://www.tdcj.state.tx.us/death_row/dr_info/elliottjohn.jpg'
p2204
sg6
I861
sg7
I42
sg8
VTravis
p2205
sg10
VHispanic
p2206
sg12
I296
sg13
g14
(S'\x07\xd3\x02\x04\x00\x00\x00\x00\x00\x00'
p2207
tp2208
Rp2209
sg18
VElliott
p2210
sg20
S'http://www.tdcj.state.tx.us/death_row/dr_info/no_last_statement.html'
p2211
sa(dp2212
g2
VGranville
p2213
sg4
S'http://www.tdcj.state.tx.us/death_row/dr_info/riddlegranville.jpg'
p2214
sg6
I965
sg7
I33
sg8
VPotter
p2215
sg10
VWhite
p2216
sg12
I295
sg13
g14
(S'\x07\xd3\x01\x1e\x00\x00\x00\x00\x00\x00'
p2217
tp2218
Rp2219
sg18
VRiddle
p2220
sg20
S'http://www.tdcj.state.tx.us/death_row/dr_info/riddlegranvillelast.html'
p2221
sa(dp2222
g2
VRichard
p2223
sg4
S'http://www.tdcj.state.tx.us/death_row/dr_info/dinkinsrichard.jpg'
p2224
sg6
I999022
sg7
I40
sg8
VJefferson
p2225
sg10
VWhite
p2226
sg12
I294
sg13
g14
(S'\x07\xd3\x01\x1d\x00\x00\x00\x00\x00\x00'
p2227
tp2228
Rp2229
sg18
VDinkins
p2230
sg20
S'http://www.tdcj.state.tx.us/death_row/dr_info/dinkinsrichardlast.html'
p2231
sa(dp2232
g2
VAlva
p2233
sg4
S'http://www.tdcj.state.tx.us/death_row/dr_info/curryalva.jpg'
p2234
sg6
I999080
sg7
I32
sg8
VTravis
p2235
sg10
VBlack
p2236
sg12
I293
sg13
g14
(S'\x07\xd3\x01\x1c\x00\x00\x00\x00\x00\x00'
p2237
tp2238
Rp2239
sg18
VCurry
p2240
sg20
S'http://www.tdcj.state.tx.us/death_row/dr_info/curryalvalast.html'
p2241
sa(dp2242
g2
VRobert
p2243
sg4
S'http://www.tdcj.state.tx.us/death_row/dr_info/lookingbillrobert.jpg'
p2244
sg6
I990
sg7
I37
sg8
VHidalgo
p2245
sg10
VWhite
p2246
sg12
I292
sg13
g14
(S'\x07\xd3\x01\x16\x00\x00\x00\x00\x00\x00'
p2247
tp2248
Rp2249
sg18
VLookingbill
p2250
sg20
S'http://www.tdcj.state.tx.us/death_row/dr_info/lookingbillrobertlast.html'
p2251
sa(dp2252
g2
VJohn
p2253
sg4
S'http://www.tdcj.state.tx.us/death_row/dr_info/baltazarjohn.html'
p2254
sg6
I999257
sg7
I30
sg8
VNueces
p2255
sg10
VHispanic
p2256
sg12
I291
sg13
g14
(S'\x07\xd3\x01\x0f\x00\x00\x00\x00\x00\x00'
p2257
tp2258
Rp2259
sg18
VBaltazar
p2260
sg20
S'http://www.tdcj.state.tx.us/death_row/dr_info/no_last_statement.html'
p2261
sa(dp2262
g2
VSamuel
p2263
sg4
S'http://www.tdcj.state.tx.us/death_row/dr_info/gallamoresamuel.jpg'
p2264
sg6
I999090
sg7
I31
sg8
VComal
p2265
sg10
VWhite
p2266
sg12
I290
sg13
g14
(S'\x07\xd3\x01\x0e\x00\x00\x00\x00\x00\x00'
p2267
tp2268
Rp2269
sg18
VGallamore
p2270
sg20
S'http://www.tdcj.state.tx.us/death_row/dr_info/gallamoresamuellast.html'
p2271
sa(dp2272
g2
VJames
p2273
sg4
S'http://www.tdcj.state.tx.us/death_row/dr_info/collierjames.jpg'
p2274
sg6
I999190
sg7
I55
sg8
VWichita
p2275
sg10
VWhite
p2276
sg12
I289
sg13
g14
(S'\x07\xd2\x0c\x0b\x00\x00\x00\x00\x00\x00'
p2277
tp2278
Rp2279
sg18
VCollier
p2280
sg20
S'http://www.tdcj.state.tx.us/death_row/dr_info/collierjameslast.html'
p2281
sa(dp2282
g2
VLeonard
p2283
sg4
S'http://www.tdcj.state.tx.us/death_row/dr_info/rojasleonard.jpg'
p2284
sg6
I999194
sg7
I52
sg8
VJohnson
p2285
sg10
VHispanic
p2286
sg12
I288
sg13
g14
(S'\x07\xd2\x0c\x04\x00\x00\x00\x00\x00\x00'
p2287
tp2288
Rp2289
sg18
VRojas
p2290
sg20
S'http://www.tdcj.state.tx.us/death_row/dr_info/no_last_statement.html'
p2291
sa(dp2292
g2
VWilliam
p2293
sg4
S'http://www.tdcj.state.tx.us/death_row/dr_info/chappellwilliam.jpg'
p2294
sg6
I960
sg7
I66
sg8
VTarrant
p2295
sg10
VWhite
p2296
sg12
I287
sg13
g14
(S'\x07\xd2\x0b\x14\x00\x00\x00\x00\x00\x00'
p2297
tp2298
Rp2299
sg18
VChappell
p2300
sg20
S'http://www.tdcj.state.tx.us/death_row/dr_info/chappellwilliamlast.html'
p2301
sa(dp2302
g2
VCraig
p2303
sg4
S'http://www.tdcj.state.tx.us/death_row/dr_info/ogancraig.jpg'
p2304
sg6
I979
sg7
I47
sg8
VHarris
p2305
sg10
VWhite
p2306
sg12
I286
sg13
g14
(S'\x07\xd2\x0b\x13\x00\x00\x00\x00\x00\x00'
p2307
tp2308
Rp2309
sg18
VOgan
p2310
sg20
S'http://www.tdcj.state.tx.us/death_row/dr_info/ogancraiglast.html'
p2311
sa(dp2312
g2
VJames
p2313
sg4
S'http://www.tdcj.state.tx.us/death_row/dr_info/powelljames.jpg'
p2314
sg6
I999001
sg7
I56
sg8
VNewton
p2315
sg10
VWhite
p2316
sg12
I285
sg13
g14
(S'\x07\xd2\n\x01\x00\x00\x00\x00\x00\x00'
p2317
tp2318
Rp2319
sg18
VPowell
p2320
sg20
S'http://www.tdcj.state.tx.us/death_row/dr_info/powelljameslast.html'
p2321
sa(dp2322
g2
VCalvin
p2323
sg4
S'http://www.tdcj.state.tx.us/death_row/dr_info/kingcalvin.jpg'
p2324
sg6
I999152
sg7
I48
sg8
VJefferson
p2325
sg10
VBlack
p2326
sg12
I284
sg13
g14
(S'\x07\xd2\t\x19\x00\x00\x00\x00\x00\x00'
p2327
tp2328
Rp2329
sg18
VKing
p2330
sg20
S'http://www.tdcj.state.tx.us/death_row/dr_info/kingcalvinlast.html'
p2331
sa(dp2332
g2
VRex
p2333
sg4
S'http://www.tdcj.state.tx.us/death_row/dr_info/maysrex.jpg'
p2334
sg6
I999172
sg7
I42
sg8
VHarris
p2335
sg10
VWhite
p2336
sg12
I283
sg13
g14
(S'\x07\xd2\t\x18\x00\x00\x00\x00\x00\x00'
p2337
tp2338
Rp2339
sg18
VMays
p2340
sg20
S'http://www.tdcj.state.tx.us/death_row/dr_info/maysrexlast.html'
p2341
sa(dp2342
g2
VRon
p2343
sg4
S'http://www.tdcj.state.tx.us/death_row/dr_info/shamburgerron.jpg'
p2344
sg6
I999167
sg7
I30
sg8
VBrazos
p2345
sg10
VWhite
p2346
sg12
I282
sg13
g14
(S'\x07\xd2\t\x12\x00\x00\x00\x00\x00\x00'
p2347
tp2348
Rp2349
sg18
VShamburger
p2350
sg20
S'http://www.tdcj.state.tx.us/death_row/dr_info/shamburgerronlast.html'
p2351
sa(dp2352
g2
VJessie
p2353
sg4
S'http://www.tdcj.state.tx.us/death_row/dr_info/patrickjessie.jpg'
p2354
sg6
I975
sg7
I44
sg8
VDallas
p2355
sg10
VWhite
p2356
sg12
I281
sg13
g14
(S'\x07\xd2\t\x11\x00\x00\x00\x00\x00\x00'
p2357
tp2358
Rp2359
sg18
VPatrick
p2360
sg20
S'http://www.tdcj.state.tx.us/death_row/dr_info/no_last_statement.html'
p2361
sa(dp2362
g2
VTony
p2363
sg4
S'http://www.tdcj.state.tx.us/death_row/dr_info/walkertony.jpg'
p2364
sg6
I999082
sg7
I36
sg8
VMorris
p2365
sg10
VBlack
p2366
sg12
I280
sg13
g14
(S'\x07\xd2\t\n\x00\x00\x00\x00\x00\x00'
p2367
tp2368
Rp2369
sg18
VWalker
p2370
sg20
S'http://www.tdcj.state.tx.us/death_row/dr_info/walkertonylast.html'
p2371
sa(dp2372
g2
VToronto
p2373
sg4
S'http://www.tdcj.state.tx.us/death_row/dr_info/pattersontoronto.jpg'
p2374
sg6
I999178
sg7
I24
sg8
VDallas
p2375
sg10
VBlack
p2376
sg12
I279
sg13
g14
(S'\x07\xd2\x08\x1c\x00\x00\x00\x00\x00\x00'
p2377
tp2378
Rp2379
sg18
VPatterson
p2380
sg20
S'http://www.tdcj.state.tx.us/death_row/dr_info/pattersontorontolast.html'
p2381
sa(dp2382
g2
VGary
p2383
sg4
S'http://www.tdcj.state.tx.us/death_row/dr_info/etheridgegary.jpg'
p2384
sg6
I986
sg7
I38
sg8
VBrazoria
p2385
sg10
VWhite
p2386
sg12
I278
sg13
g14
(S'\x07\xd2\x08\x14\x00\x00\x00\x00\x00\x00'
p2387
tp2388
Rp2389
sg18
VEtheridge
p2390
sg20
S'http://www.tdcj.state.tx.us/death_row/dr_info/etheridgegarylast.html'
p2391
sa(dp2392
g2
VJavier
p2393
sg4
S'http://www.tdcj.state.tx.us/death_row/dr_info/medinajavier.jpg'
p2394
sg6
I944
sg7
I33
sg8
VDallas
p2395
sg10
VHispanic
p2396
sg12
I277
sg13
g14
(S'\x07\xd2\x08\x0e\x00\x00\x00\x00\x00\x00'
p2397
tp2398
Rp2399
sg18
VMedina
p2400
sg20
S'http://www.tdcj.state.tx.us/death_row/dr_info/medinajavierlast.html'
p2401
sa(dp2402
g2
VT.J.
p2403
sg4
S'http://www.tdcj.state.tx.us/death_row/dr_info/jonestj.jpg'
p2404
sg6
I999133
sg7
I25
sg8
VGregg
p2405
sg10
VBlack
p2406
sg12
I276
sg13
g14
(S'\x07\xd2\x08\x08\x00\x00\x00\x00\x00\x00'
p2407
tp2408
Rp2409
sg18
VJones
p2410
sg20
S'http://www.tdcj.state.tx.us/death_row/dr_info/jonestjlast.html'
p2411
sa(dp2412
g2
VRichard
p2413
sg4
S'http://www.tdcj.state.tx.us/death_row/dr_info/kutznerrichard.jpg'
p2414
sg6
I999227
sg7
I59
sg8
VMontgomery
p2415
sg10
VWhite
p2416
sg12
I275
sg13
g14
(S'\x07\xd2\x08\x07\x00\x00\x00\x00\x00\x00'
p2417
tp2418
Rp2419
sg18
VKutzner
p2420
sg20
S'http://www.tdcj.state.tx.us/death_row/dr_info/kutznerrichardlast.html'
p2421
sa(dp2422
g2
VJeffrey
p2423
sg4
S'http://www.tdcj.state.tx.us/death_row/dr_info/williamsjeffrey.jpg'
p2424
sg6
I999154
sg7
I30
sg8
VHarris
p2425
sg10
VBlack
p2426
sg12
I274
sg13
g14
(S'\x07\xd2\x06\x1a\x00\x00\x00\x00\x00\x00'
p2427
tp2428
Rp2429
sg18
VWilliams
p2430
sg20
S'http://www.tdcj.state.tx.us/death_row/dr_info/williamsjeffreylast.html'
p2431
sa(dp2432
g2
VRobert
p2433
sg4
S'http://www.tdcj.state.tx.us/death_row/dr_info/coulsonrobert.jpg'
p2434
sg6
I999115
sg7
I34
sg8
VHarris
p2435
sg10
VWhite
p2436
sg12
I273
sg13
g14
(S'\x07\xd2\x06\x19\x00\x00\x00\x00\x00\x00'
p2437
tp2438
Rp2439
sg18
VCoulson
p2440
sg20
S'http://www.tdcj.state.tx.us/death_row/dr_info/coulsonrobertlast.html'
p2441
sa(dp2442
g2
VDaniel
p2443
sg4
S'http://www.tdcj.state.tx.us/death_row/dr_info/reneaudaniel.jpg'
p2444
sg6
I999223
sg7
I27
sg8
VGillespie
p2445
sg10
VWhite
p2446
sg12
I272
sg13
g14
(S'\x07\xd2\x06\r\x00\x00\x00\x00\x00\x00'
p2447
tp2448
Rp2449
sg18
VReneau
p2450
sg20
S'http://www.tdcj.state.tx.us/death_row/dr_info/no_last_statement.html'
p2451
sa(dp2452
g2
VStanley
p2453
sg4
S'http://www.tdcj.state.tx.us/death_row/dr_info/bakerstanley.jpg'
p2454
sg6
I999157
sg7
I35
sg8
VBrazos
p2455
sg10
VWhite
p2456
sg12
I271
sg13
g14
(S'\x07\xd2\x05\x1e\x00\x00\x00\x00\x00\x00'
p2457
tp2458
Rp2459
sg18
VBaker, Jr.
p2460
sg20
S'http://www.tdcj.state.tx.us/death_row/dr_info/bakerstanleylast.html'
p2461
sa(dp2462
g2
VNapoleon
p2463
sg4
S'http://www.tdcj.state.tx.us/death_row/dr_info/beazleynapolean.jpg'
p2464
sg6
I999141
sg7
I25
sg8
VSmith
p2465
sg10
VBlack
p2466
sg12
I270
sg13
g14
(S'\x07\xd2\x05\x1c\x00\x00\x00\x00\x00\x00'
p2467
tp2468
Rp2469
sg18
VBeazley
p2470
sg20
S'http://www.tdcj.state.tx.us/death_row/dr_info/beazleynapoleonlast.html'
p2471
sa(dp2472
g2
VJohnny
p2473
sg4
S'http://www.tdcj.state.tx.us/death_row/dr_info/martinezjohnny.jpg'
p2474
sg6
I999089
sg7
I29
sg8
VNueces
p2475
sg10
VHispanic
p2476
sg12
I269
sg13
g14
(S'\x07\xd2\x05\x16\x00\x00\x00\x00\x00\x00'
p2477
tp2478
Rp2479
sg18
VMartinez
p2480
sg20
S'http://www.tdcj.state.tx.us/death_row/dr_info/martinezjohnnylast.html'
p2481
sa(dp2482
g2
VRonford
p2483
sg4
S'http://www.tdcj.state.tx.us/death_row/dr_info/styronronford.jpg'
p2484
sg6
I999124
sg7
I32
sg8
VLiberty
p2485
sg10
VWhite
p2486
sg12
I268
sg13
g14
(S'\x07\xd2\x05\x10\x00\x00\x00\x00\x00\x00'
p2487
tp2488
Rp2489
sg18
VStyron
p2490
sg20
S'http://www.tdcj.state.tx.us/death_row/dr_info/styronronfordlast.html'
p2491
sa(dp2492
g2
VReginald
p2493
sg4
S'http://www.tdcj.state.tx.us/death_row/dr_info/reevesreginald.jpg'
p2494
sg6
I999119
sg7
I28
sg8
VRed River
p2495
sg10
VBlack
p2496
sg12
I267
sg13
g14
(S'\x07\xd2\x05\t\x00\x00\x00\x00\x00\x00'
p2497
tp2498
Rp2499
sg18
VReeves
p2500
sg20
S'http://www.tdcj.state.tx.us/death_row/dr_info/reevesreginaldlast.html'
p2501
sa(dp2502
g2
VRodolfo
p2503
sg4
S'http://www.tdcj.state.tx.us/death_row/dr_info/hernandezrodolfo.jpg'
p2504
sg6
I807
sg7
I54
sg8
VComal
p2505
sg10
VHispanic
p2506
sg12
I266
sg13
g14
(S'\x07\xd2\x04\x1e\x00\x00\x00\x00\x00\x00'
p2507
tp2508
Rp2509
sg18
VHernandez
p2510
sg20
S'http://www.tdcj.state.tx.us/death_row/dr_info/hernandezrodolfolast.html'
p2511
sa(dp2512
g2
VGerald
p2513
sg4
S'http://www.tdcj.state.tx.us/death_row/dr_info/caseygerald.jpg'
p2514
sg6
I999013
sg7
I47
sg8
VMontgomery
p2515
sg10
VWhite
p2516
sg12
I265
sg13
g14
(S'\x07\xd2\x04\x12\x00\x00\x00\x00\x00\x00'
p2517
tp2518
Rp2519
sg18
VCasey
p2520
sg20
S'http://www.tdcj.state.tx.us/death_row/dr_info/no_last_statement.html'
p2521
sa(dp2522
g2
VWilliam
p2523
sg4
S'http://www.tdcj.state.tx.us/death_row/dr_info/burnswilliam.jpg'
p2524
sg6
I692
sg7
I43
sg8
VBowie
p2525
sg10
VBlack
p2526
sg12
I264
sg13
g14
(S'\x07\xd2\x04\x0b\x00\x00\x00\x00\x00\x00'
p2527
tp2528
Rp2529
sg18
VBurns
p2530
sg20
S'http://www.tdcj.state.tx.us/death_row/dr_info/burnswilliamlast.html'
p2531
sa(dp2532
g2
VJose
p2533
sg4
S'http://www.tdcj.state.tx.us/death_row/dr_info/santellanjose.html'
p2534
sg6
I999140
sg7
I40
sg8
VKerr
p2535
sg10
VHispanic
p2536
sg12
I263
sg13
g14
(S'\x07\xd2\x04\n\x00\x00\x00\x00\x00\x00'
p2537
tp2538
Rp2539
sg18
VSantellan, Sr.
p2540
sg20
S'http://www.tdcj.state.tx.us/death_row/dr_info/santellanjoselast.html'
p2541
sa(dp2542
g2
VGerald
p2543
sg4
S'http://www.tdcj.state.tx.us/death_row/dr_info/tignergerald.jpg'
p2544
sg6
I999099
sg7
I29
sg8
VMcLennan
p2545
sg10
VBlack
p2546
sg12
I262
sg13
g14
(S'\x07\xd2\x03\x07\x00\x00\x00\x00\x00\x00'
p2547
tp2548
Rp2549
sg18
VTigner
p2550
sg20
S'http://www.tdcj.state.tx.us/death_row/dr_info/tignergeraldlast.html'
p2551
sa(dp2552
g2
VMonty
p2553
sg4
S'http://www.tdcj.state.tx.us/death_row/dr_info/delkmonty.jpg'
p2554
sg6
I900
sg7
I35
sg8
VAnderson
p2555
sg10
VWhite
p2556
sg12
I261
sg13
g14
(S'\x07\xd2\x02\x1c\x00\x00\x00\x00\x00\x00'
p2557
tp2558
Rp2559
sg18
VDelk
p2560
sg20
S'http://www.tdcj.state.tx.us/death_row/dr_info/delkmontylast.html'
p2561
sa(dp2562
g2
VRandall
p2563
sg4
S'http://www.tdcj.state.tx.us/death_row/dr_info/hafdahlrandall.jpg'
p2564
sg6
I826
sg7
I48
sg8
VRandall
p2565
sg10
VWhite
p2566
sg12
I260
sg13
g14
(S'\x07\xd2\x01\x1f\x00\x00\x00\x00\x00\x00'
p2567
tp2568
Rp2569
sg18
VHafdahl, Sr.
p2570
sg20
S'http://www.tdcj.state.tx.us/death_row/dr_info/hafdahlrandalllast.html'
p2571
sa(dp2572
g2
VWindell
p2573
sg4
S'http://www.tdcj.state.tx.us/death_row/dr_info/brousardwindell.jpg'
p2574
sg6
I999064
sg7
I41
sg8
VJefferson
p2575
sg10
VBlack
p2576
sg12
I259
sg13
g14
(S'\x07\xd2\x01\x1e\x00\x00\x00\x00\x00\x00'
p2577
tp2578
Rp2579
sg18
VBroussard
p2580
sg20
S'http://www.tdcj.state.tx.us/death_row/dr_info/broussardwindelllast.html'
p2581
sa(dp2582
g2
VJermarr
p2583
sg4
S'http://www.tdcj.state.tx.us/death_row/dr_info/arnoldjermarr.jpg'
p2584
sg6
I987
sg7
I43
sg8
VNueces
p2585
sg10
VBlack
p2586
sg12
I258
sg13
g14
(S'\x07\xd2\x01\x10\x00\x00\x00\x00\x00\x00'
p2587
tp2588
Rp2589
sg18
VArnold
p2590
sg20
S'http://www.tdcj.state.tx.us/death_row/dr_info/arnoldjermarrlast.html'
p2591
sa(dp2592
g2
VMichael
p2593
sg4
S'http://www.tdcj.state.tx.us/death_row/dr_info/mooremichael.jpg'
p2594
sg6
I999126
sg7
I31
sg8
VCoryell
p2595
sg10
VWhite
p2596
sg12
I257
sg13
g14
(S'\x07\xd2\x01\t\x00\x00\x00\x00\x00\x00'
p2597
tp2598
Rp2599
sg18
VMoore
p2600
sg20
S'http://www.tdcj.state.tx.us/death_row/dr_info/mooremichaellast.html'
p2601
sa(dp2602
g2
VVincent
p2603
sg4
S'http://www.tdcj.state.tx.us/death_row/dr_info/cooksvincent.jpg'
p2604
sg6
I927
sg7
I37
sg8
VDallas
p2605
sg10
VBlack
p2606
sg12
I256
sg13
g14
(S'\x07\xd1\x0c\x0c\x00\x00\x00\x00\x00\x00'
p2607
tp2608
Rp2609
sg18
VCooks
p2610
sg20
S'http://www.tdcj.state.tx.us/death_row/dr_info/cooksvincentlast.html'
p2611
sa(dp2612
g2
VEmerson
p2613
sg4
S'http://www.tdcj.state.tx.us/death_row/dr_info/ruddemerson.jpg'
p2614
sg6
I936
sg7
I31
sg8
VDallas
p2615
sg10
VBlack
p2616
sg12
I255
sg13
g14
(S'\x07\xd1\x0b\x0f\x00\x00\x00\x00\x00\x00'
p2617
tp2618
Rp2619
sg18
VRudd
p2620
sg20
S'http://www.tdcj.state.tx.us/death_row/dr_info/ruddemersonlast.html'
p2621
sa(dp2622
g2
VJeffery
p2623
sg4
S'http://www.tdcj.state.tx.us/death_row/dr_info/tuckerjefferey.jpg'
p2624
sg6
I952
sg7
I41
sg8
VParker
p2625
sg10
VWhite
p2626
sg12
I254
sg13
g14
(S'\x07\xd1\x0b\x0e\x00\x00\x00\x00\x00\x00'
p2627
tp2628
Rp2629
sg18
VTucker
p2630
sg20
S'http://www.tdcj.state.tx.us/death_row/dr_info/tuckerjefferylast.html'
p2631
sa(dp2632
g2
VGerald
p2633
sg4
S'http://www.tdcj.state.tx.us/death_row/dr_info/mitchellgerald.jpg'
p2634
sg6
I838
sg7
I33
sg8
VHarris
p2635
sg10
VBlack
p2636
sg12
I253
sg13
g14
(S'\x07\xd1\n\x16\x00\x00\x00\x00\x00\x00'
p2637
tp2638
Rp2639
sg18
VMitchell
p2640
sg20
S'http://www.tdcj.state.tx.us/death_row/dr_info/mitchellgeraldlast.html'
p2641
sa(dp2642
g2
VJames
p2643
sg4
S'http://www.tdcj.state.tx.us/death_row/dr_info/knoxroy.jpg'
p2644
sg6
I823
sg7
I50
sg8
VGalveston
p2645
sg10
VWhite
p2646
sg12
I252
sg13
g14
(S'\x07\xd1\t\x12\x00\x00\x00\x00\x00\x00'
p2647
tp2648
Rp2649
sg18
VKnox
p2650
sg20
S'http://www.tdcj.state.tx.us/death_row/dr_info/no_last_statement.html'
p2651
sa(dp2652
g2
VJeffery
p2653
sg4
S'http://www.tdcj.state.tx.us/death_row/dr_info/doughtiejeffery.jpg'
p2654
sg6
I999106
sg7
I39
sg8
VNueces
p2655
sg10
VWhite
p2656
sg12
I251
sg13
g14
(S'\x07\xd1\x08\x10\x00\x00\x00\x00\x00\x00'
p2657
tp2658
Rp2659
sg18
VDoughtie
p2660
sg20
S'http://www.tdcj.state.tx.us/death_row/dr_info/doughtiejefferylast.html'
p2661
sa(dp2662
g2
VMack
p2663
sg4
S'http://www.tdcj.state.tx.us/death_row/dr_info/hillmack.jpg'
p2664
sg6
I961
sg7
I47
sg8
VLubbock
p2665
sg10
VWhite
p2666
sg12
I250
sg13
g14
(S'\x07\xd1\x08\x08\x00\x00\x00\x00\x00\x00'
p2667
tp2668
Rp2669
sg18
VHill
p2670
sg20
S'http://www.tdcj.state.tx.us/death_row/dr_info/hillmacklast.html'
p2671
sa(dp2672
g2
VJames
p2673
sg4
S'http://www.tdcj.state.tx.us/death_row/dr_info/wilkensjames.jpg'
p2674
sg6
I897
sg7
I39
sg8
VSmith
p2675
sg10
VWhite
p2676
sg12
I249
sg13
g14
(S'\x07\xd1\x07\x0b\x00\x00\x00\x00\x00\x00'
p2677
tp2678
Rp2679
sg18
VWilkens
p2680
sg20
S'http://www.tdcj.state.tx.us/death_row/dr_info/wilkensjameslast.html'
p2681
sa(dp2682
g2
VMiguel
p2683
sg4
S'http://www.tdcj.state.tx.us/death_row/dr_info/richardsonmiguel.jpg'
p2684
sg6
I691
sg7
I46
sg8
VBexar
p2685
sg10
VBlack
p2686
sg12
I248
sg13
g14
(S'\x07\xd1\x06\x1a\x00\x00\x00\x00\x00\x00'
p2687
tp2688
Rp2689
sg18
VRichardson
p2690
sg20
S'http://www.tdcj.state.tx.us/death_row/dr_info/richardsonmiguellast.html'
p2691
sa(dp2692
g2
VJohn
p2693
sg4
S'http://www.tdcj.state.tx.us/death_row/dr_info/wheatjohn.jpg'
p2694
sg6
I999222
sg7
I57
sg8
VTarrant
p2695
sg10
VWhite
p2696
sg12
I247
sg13
g14
(S'\x07\xd1\x06\r\x00\x00\x00\x00\x00\x00'
p2697
tp2698
Rp2699
sg18
VWheat
p2700
sg20
S'http://www.tdcj.state.tx.us/death_row/dr_info/wheatjohnlast.html'
p2701
sa(dp2702
g2
VDavid
p2703
sg4
S'http://www.tdcj.state.tx.us/death_row/dr_info/goffdavid.jpg'
p2704
sg6
I999015
sg7
I31
sg8
VTarrant
p2705
sg10
VBlack
p2706
sg12
I246
sg13
g14
(S'\x07\xd1\x04\x19\x00\x00\x00\x00\x00\x00'
p2707
tp2708
Rp2709
sg18
VGoff
p2710
sg20
S'http://www.tdcj.state.tx.us/death_row/dr_info/goffdavidlast.html'
p2711
sa(dp2712
g2
VJason
p2713
sg4
S'http://www.tdcj.state.tx.us/death_row/dr_info/masseyjason.jpg'
p2714
sg6
I999121
sg7
I28
sg8
VEllis
p2715
sg10
VWhite
p2716
sg12
I245
sg13
g14
(S'\x07\xd1\x04\x03\x00\x00\x00\x00\x00\x00'
p2717
tp2718
Rp2719
sg18
VMassey
p2720
sg20
S'http://www.tdcj.state.tx.us/death_row/dr_info/masseyjasonlast.html'
p2721
sa(dp2722
g2
VDennis
p2723
sg4
S'http://www.tdcj.state.tx.us/death_row/dr_info/dowthittdennis.jpg'
p2724
sg6
I999047
sg7
I55
sg8
VMontgomery
p2725
sg10
VWhite
p2726
sg12
I244
sg13
g14
(S'\x07\xd1\x03\x07\x00\x00\x00\x00\x00\x00'
p2727
tp2728
Rp2729
sg18
VDowthitt
p2730
sg20
S'http://www.tdcj.state.tx.us/death_row/dr_info/dowthittdennislast.html'
p2731
sa(dp2732
g2
VAdolph
p2733
sg4
S'http://www.tdcj.state.tx.us/death_row/dr_info/hernadezadolph.jpg'
p2734
sg6
I978
sg7
I50
sg8
VLubbock
p2735
sg10
VHispanic
p2736
sg12
I243
sg13
g14
(S'\x07\xd1\x02\x08\x00\x00\x00\x00\x00\x00'
p2737
tp2738
Rp2739
sg18
VHernandez
p2740
sg20
S'http://www.tdcj.state.tx.us/death_row/dr_info/hernandezadophlast.html'
p2741
sa(dp2742
g2
VCaruthers
p2743
sg4
S'http://www.tdcj.state.tx.us/death_row/dr_info/alexandercaruthers.jpg'
p2744
sg6
I704
sg7
I52
sg8
VBexar
p2745
sg10
VBlack
p2746
sg12
I242
sg13
g14
(S'\x07\xd1\x01\x1d\x00\x00\x00\x00\x00\x00'
p2747
tp2748
Rp2749
sg18
VAlexander
p2750
sg20
S'http://www.tdcj.state.tx.us/death_row/dr_info/no_last_statement.html'
p2751
sa(dp2752
g2
VAlvin
p2753
sg4
S'http://www.tdcj.state.tx.us/death_row/dr_info/goodwinalvin.jpg'
p2754
sg6
I879
sg7
I37
sg8
VMontgomery
p2755
sg10
VWhite
p2756
sg12
I241
sg13
g14
(S'\x07\xd1\x01\x12\x00\x00\x00\x00\x00\x00'
p2757
tp2758
Rp2759
sg18
VGoodwin
p2760
sg20
S'http://www.tdcj.state.tx.us/death_row/dr_info/goodwinalvinlast.html'
p2761
sa(dp2762
g2
VJack
p2763
sg4
S'http://www.tdcj.state.tx.us/death_row/dr_info/clarkjack.jpg'
p2764
sg6
I994
sg7
I37
sg8
VLubbock
p2765
sg10
VWhite
p2766
sg12
I240
sg13
g14
(S'\x07\xd1\x01\t\x00\x00\x00\x00\x00\x00'
p2767
tp2768
Rp2769
sg18
VClark
p2770
sg20
S'http://www.tdcj.state.tx.us/death_row/dr_info/clarkjacklast.html'
p2771
sa(dp2772
g2
VClaude
p2773
sg4
S'http://www.tdcj.state.tx.us/death_row/dr_info/jonesclaude.jpg'
p2774
sg6
I980
sg7
I60
sg8
VSan Jacinto
p2775
sg10
VWhite
p2776
sg12
I239
sg13
g14
(S'\x07\xd0\x0c\x07\x00\x00\x00\x00\x00\x00'
p2777
tp2778
Rp2779
sg18
VJones
p2780
sg20
S'http://www.tdcj.state.tx.us/death_row/dr_info/jonesclaudelast.html'
p2781
sa(dp2782
g2
VDaniel
p2783
sg4
S'http://www.tdcj.state.tx.us/death_row/dr_info/hittledaniel.jpg'
p2784
sg6
I981
sg7
I50
sg8
VDallas
p2785
sg10
VWhite
p2786
sg12
I238
sg13
g14
(S'\x07\xd0\x0c\x06\x00\x00\x00\x00\x00\x00'
p2787
tp2788
Rp2789
sg18
VHittle
p2790
sg20
S'http://www.tdcj.state.tx.us/death_row/dr_info/hittledaniellast.html'
p2791
sa(dp2792
g2
VGarry
p2793
sg4
S'http://www.tdcj.state.tx.us/death_row/dr_info/millergarry.jpg'
p2794
sg6
I947
sg7
I33
sg8
VJones
p2795
sg10
VWhite
p2796
sg12
I237
sg13
g14
(S'\x07\xd0\x0c\x05\x00\x00\x00\x00\x00\x00'
p2797
tp2798
Rp2799
sg18
VMiller
p2800
sg20
S'http://www.tdcj.state.tx.us/death_row/dr_info/millergarrylast.html'
p2801
sa(dp2802
g2
VTony
p2803
sg4
S'http://www.tdcj.state.tx.us/death_row/dr_info/chamberstony.jpg'
p2804
sg6
I999009
sg7
I32
sg8
VSmith
p2805
sg10
VBlack
p2806
sg12
I236
sg13
g14
(S'\x07\xd0\x0b\x0f\x00\x00\x00\x00\x00\x00'
p2807
tp2808
Rp2809
sg18
VChambers
p2810
sg20
S'http://www.tdcj.state.tx.us/death_row/dr_info/chamberstonylast.html'
p2811
sa(dp2812
g2
VStacey
p2813
sg4
S'http://www.tdcj.state.tx.us/death_row/dr_info/lawtonstacey.jpg'
p2814
sg6
I999066
sg7
I31
sg8
VSmith
p2815
sg10
VBlack
p2816
sg12
I235
sg13
g14
(S'\x07\xd0\x0b\x0e\x00\x00\x00\x00\x00\x00'
p2817
tp2818
Rp2819
sg18
VLawton
p2820
sg20
S'http://www.tdcj.state.tx.us/death_row/dr_info/lawtonstaceylast.html'
p2821
sa(dp2822
g2
VMiguel
p2823
sg4
S'http://www.tdcj.state.tx.us/death_row/dr_info/floresmiguel.html'
p2824
sg6
I983
sg7
I31
sg8
VCollin
p2825
sg10
VHispanic
p2826
sg12
I234
sg13
g14
(S'\x07\xd0\x0b\t\x00\x00\x00\x00\x00\x00'
p2827
tp2828
Rp2829
sg18
VFlores
p2830
sg20
S'http://www.tdcj.state.tx.us/death_row/dr_info/floresmiguellast.html'
p2831
sa(dp2832
g2
VJeffery
p2833
sg4
S'http://www.tdcj.state.tx.us/death_row/dr_info/dillinghamjeffery.jpg'
p2834
sg6
I999071
sg7
I27
sg8
VWichita
p2835
sg10
VWhite
p2836
sg12
I233
sg13
g14
(S'\x07\xd0\x0b\x01\x00\x00\x00\x00\x00\x00'
p2837
tp2838
Rp2839
sg18
VDillingham
p2840
sg20
S'http://www.tdcj.state.tx.us/death_row/dr_info/dillinghamjefferylast.html'
p2841
sa(dp2842
g2
VRicky
p2843
sg4
S'http://www.tdcj.state.tx.us/death_row/dr_info/mcginnricky.jpg'
p2844
sg6
I999150
sg7
I43
sg8
VBrown
p2845
sg10
VWhite
p2846
sg12
I232
sg13
g14
(S'\x07\xd0\t\x1b\x00\x00\x00\x00\x00\x00'
p2847
tp2848
Rp2849
sg18
VMcGinn
p2850
sg20
S'http://www.tdcj.state.tx.us/death_row/dr_info/mcginnrickylast.html'
p2851
sa(dp2852
g2
VJeffery
p2853
sg4
S'http://www.tdcj.state.tx.us/death_row/dr_info/caldwelljeffrey.jpg'
p2854
sg6
I938
sg7
I37
sg8
VDallas
p2855
sg10
VBlack
p2856
sg12
I231
sg13
g14
(S'\x07\xd0\x08\x1e\x00\x00\x00\x00\x00\x00'
p2857
tp2858
Rp2859
sg18
VCaldwell
p2860
sg20
S'http://www.tdcj.state.tx.us/death_row/dr_info/caldwelljefferylast.html'
p2861
sa(dp2862
g2
VDavid
p2863
sg4
S'http://www.tdcj.state.tx.us/death_row/dr_info/gibbsdavid.jpg'
p2864
sg6
I825
sg7
I39
sg8
VMontgomery
p2865
sg10
VWhite
p2866
sg12
I230
sg13
g14
(S'\x07\xd0\x08\x17\x00\x00\x00\x00\x00\x00'
p2867
tp2868
Rp2869
sg18
VGibbs
p2870
sg20
S'http://www.tdcj.state.tx.us/death_row/dr_info/gibbsdavidlast.html'
p2871
sa(dp2872
g2
VRichard
p2873
sg4
S'http://www.tdcj.state.tx.us/death_row/dr_info/jonesrichard.jpg'
p2874
sg6
I882
sg7
I40
sg8
VTarrant
p2875
sg10
VWhite
p2876
sg12
I229
sg13
g14
(S'\x07\xd0\x08\x16\x00\x00\x00\x00\x00\x00'
p2877
tp2878
Rp2879
sg18
VJones
p2880
sg20
S'http://www.tdcj.state.tx.us/death_row/dr_info/jonesrichardlast.html'
p2881
sa(dp2882
g2
VJohn
p2883
sg4
S'http://www.tdcj.state.tx.us/death_row/dr_info/satterwhitejohn.jpg'
p2884
sg6
I651
sg7
I53
sg8
VBexar
p2885
sg10
VBlack
p2886
sg12
I228
sg13
g14
(S'\x07\xd0\x08\x10\x00\x00\x00\x00\x00\x00'
p2887
tp2888
Rp2889
sg18
VSatterwhite
p2890
sg20
S'http://www.tdcj.state.tx.us/death_row/dr_info/no_last_statement.html'
p2891
sa(dp2892
g2
VOliver
p2893
sg4
S'http://www.tdcj.state.tx.us/death_row/dr_info/cruzoliver.jpg'
p2894
sg6
I954
sg7
I33
sg8
VBexar
p2895
sg10
VHispanic
p2896
sg12
I227
sg13
g14
(S'\x07\xd0\x08\t\x00\x00\x00\x00\x00\x00'
p2897
tp2898
Rp2899
sg18
VCruz
p2900
sg20
S'http://www.tdcj.state.tx.us/death_row/dr_info/cruzoliverlast.html'
p2901
sa(dp2902
g2
VBrian
p2903
sg4
S'http://www.tdcj.state.tx.us/death_row/dr_info/robersonbrian.jpg'
p2904
sg6
I886
sg7
I36
sg8
VDallas
p2905
sg10
VBlack
p2906
sg12
I226
sg13
g14
(S'\x07\xd0\x08\t\x00\x00\x00\x00\x00\x00'
p2907
tp2908
Rp2909
sg18
VRoberson
p2910
sg20
S'http://www.tdcj.state.tx.us/death_row/dr_info/robersonbrianlast.html'
p2911
sa(dp2912
g2
VJuan
p2913
sg4
S'http://www.tdcj.state.tx.us/death_row/dr_info/soriajuan.jpg'
p2914
sg6
I837
sg7
I33
sg8
VTarrant
p2915
sg10
VHispanic
p2916
sg12
I225
sg13
g14
(S'\x07\xd0\x07\x1a\x00\x00\x00\x00\x00\x00'
p2917
tp2918
Rp2919
sg18
VSoria
p2920
sg20
S'http://www.tdcj.state.tx.us/death_row/dr_info/soriajuanlast.html'
p2921
sa(dp2922
g2
VOrien
p2923
sg4
S'http://www.tdcj.state.tx.us/death_row/dr_info/joinerorien.jpg'
p2924
sg6
I902
sg7
I50
sg8
VLubbock
p2925
sg10
VWhite
p2926
sg12
I224
sg13
g14
(S'\x07\xd0\x07\x0c\x00\x00\x00\x00\x00\x00'
p2927
tp2928
Rp2929
sg18
VJoiner
p2930
sg20
S'http://www.tdcj.state.tx.us/death_row/dr_info/joinerorienlast.html'
p2931
sa(dp2932
g2
VJessy
p2933
sg4
S'http://www.tdcj.state.tx.us/death_row/dr_info/sanmigueljessy.jpg'
p2934
sg6
I999008
sg7
I28
sg8
VDallas
p2935
sg10
VHispanic
p2936
sg12
I223
sg13
g14
(S'\x07\xd0\x06\x1d\x00\x00\x00\x00\x00\x00'
p2937
tp2938
Rp2939
sg18
VSan Miguel
p2940
sg20
S'http://www.tdcj.state.tx.us/death_row/dr_info/sanmigueljessylast.html'
p2941
sa(dp2942
g2
VGary
p2943
sg4
S'http://www.tdcj.state.tx.us/death_row/dr_info/grahamgary.jpg'
p2944
sg6
I696
sg7
I39
sg8
VHarris
p2945
sg10
VBlack
p2946
sg12
I222
sg13
g14
(S'\x07\xd0\x06\x16\x00\x00\x00\x00\x00\x00'
p2947
tp2948
Rp2949
sg18
VGraham
p2950
sg20
S'http://www.tdcj.state.tx.us/death_row/dr_info/grahamgarylast.html'
p2951
sa(dp2952
g2
VPaul
p2953
sg4
S'http://www.tdcj.state.tx.us/death_row/dr_info/nunciopaul.jpg'
p2954
sg6
I999158
sg7
I32
sg8
VHale
p2955
sg10
VHispanic
p2956
sg12
I221
sg13
g14
(S'\x07\xd0\x06\x0f\x00\x00\x00\x00\x00\x00'
p2957
tp2958
Rp2959
sg18
VNuncio
p2960
sg20
S'http://www.tdcj.state.tx.us/death_row/dr_info/nunciopaullast.html'
p2961
sa(dp2962
g2
VJohn
p2963
sg4
S'http://www.tdcj.state.tx.us/death_row/dr_info/burksjohn.jpg'
p2964
sg6
I949
sg7
I44
sg8
VMcLennan
p2965
sg10
VBlack
p2966
sg12
I220
sg13
g14
(S'\x07\xd0\x06\x0e\x00\x00\x00\x00\x00\x00'
p2967
tp2968
Rp2969
sg18
VBurks
p2970
sg20
S'http://www.tdcj.state.tx.us/death_row/dr_info/burksjohnlast.html'
p2971
sa(dp2972
g2
VThomas
p2973
sg4
S'http://www.tdcj.state.tx.us/death_row/dr_info/masonthomas.jpg'
p2974
sg6
I999035
sg7
I48
sg8
VSmith
p2975
sg10
VWhite
p2976
sg12
I219
sg13
g14
(S'\x07\xd0\x06\x0c\x00\x00\x00\x00\x00\x00'
p2977
tp2978
Rp2979
sg18
VMason
p2980
sg20
S'http://www.tdcj.state.tx.us/death_row/dr_info/masonthomaslast.html'
p2981
sa(dp2982
g2
VRobert
p2983
sg4
S'http://www.tdcj.state.tx.us/death_row/dr_info/carterrobertearl.jpg'
p2984
sg6
I999091
sg7
I34
sg8
VBastrop
p2985
sg10
VBlack
p2986
sg12
I218
sg13
g14
(S'\x07\xd0\x05\x1f\x00\x00\x00\x00\x00\x00'
p2987
tp2988
Rp2989
sg18
VCarter
p2990
sg20
S'http://www.tdcj.state.tx.us/death_row/dr_info/carterrobertearllast.html'
p2991
sa(dp2992
g2
VJames
p2993
sg4
S'http://www.tdcj.state.tx.us/death_row/dr_info/claytonjames.jpg'
p2994
sg6
I921
sg7
I33
sg8
VTaylor
p2995
sg10
VBlack
p2996
sg12
I217
sg13
g14
(S'\x07\xd0\x05\x19\x00\x00\x00\x00\x00\x00'
p2997
tp2998
Rp2999
sg18
VClayton
p3000
sg20
S'http://www.tdcj.state.tx.us/death_row/dr_info/claytonjameslast.html'
p3001
sa(dp3002
g2
VRichard
p3003
sg4
S'http://www.tdcj.state.tx.us/death_row/dr_info/fosterrichard.jpg'
p3004
sg6
I815
sg7
I47
sg8
VParker
p3005
sg10
VWhite
p3006
sg12
I216
sg13
g14
(S'\x07\xd0\x05\x18\x00\x00\x00\x00\x00\x00'
p3007
tp3008
Rp3009
sg18
VFoster
p3010
sg20
S'http://www.tdcj.state.tx.us/death_row/dr_info/fosterrichardlast.html'
p3011
sa(dp3012
g2
VJames
p3013
sg4
S'http://www.tdcj.state.tx.us/death_row/dr_info/richardsonjames.jpg'
p3014
sg6
I867
sg7
I32
sg8
VNavarro
p3015
sg10
VBlack
p3016
sg12
I215
sg13
g14
(S'\x07\xd0\x05\x17\x00\x00\x00\x00\x00\x00'
p3017
tp3018
Rp3019
sg18
VRichardson
p3020
sg20
S'http://www.tdcj.state.tx.us/death_row/dr_info/richardsonjameslast.html'
p3021
sa(dp3022
g2
VMichael
p3023
sg4
S'http://www.tdcj.state.tx.us/death_row/dr_info/mcbridemichael.jpg'
p3024
sg6
I903
sg7
I38
sg8
VLubbock
p3025
sg10
VWhite
p3026
sg12
I214
sg13
g14
(S'\x07\xd0\x05\x0b\x00\x00\x00\x00\x00\x00'
p3027
tp3028
Rp3029
sg18
VMcBride
p3030
sg20
S'http://www.tdcj.state.tx.us/death_row/dr_info/mcbridemichaellast.html'
p3031
sa(dp3032
g2
VWilliam
p3033
sg4
S'http://www.tdcj.state.tx.us/death_row/dr_info/kitchenswilliam.jpg'
p3034
sg6
I840
sg7
I37
sg8
VTaylor
p3035
sg10
VWhite
p3036
sg12
I213
sg13
g14
(S'\x07\xd0\x05\t\x00\x00\x00\x00\x00\x00'
p3037
tp3038
Rp3039
sg18
VKitchens
p3040
sg20
S'http://www.tdcj.state.tx.us/death_row/dr_info/kitchenswilliamlast.html'
p3041
sa(dp3042
g2
VTommy
p3043
sg4
S'http://www.tdcj.state.tx.us/death_row/dr_info/jacksontommy.jpg'
p3044
sg6
I821
sg7
I43
sg8
VWilliamson
p3045
sg10
VBlack
p3046
sg12
I212
sg13
g14
(S'\x07\xd0\x05\x04\x00\x00\x00\x00\x00\x00'
p3047
tp3048
Rp3049
sg18
VJackson
p3050
sg20
S'http://www.tdcj.state.tx.us/death_row/dr_info/jacksontommylast.html'
p3051
sa(dp3052
g2
VTimothy
p3053
sg4
S'http://www.tdcj.state.tx.us/death_row/dr_info/gribbletimothy.jpg'
p3054
sg6
I929
sg7
I36
sg8
VGalveston
p3055
sg10
VWhite
p3056
sg12
I211
sg13
g14
(S'\x07\xd0\x03\x0f\x00\x00\x00\x00\x00\x00'
p3057
tp3058
Rp3059
sg18
VGribble
p3060
sg20
S'http://www.tdcj.state.tx.us/death_row/dr_info/gribbletimothylast.html'
p3061
sa(dp3062
g2
VPonchai
p3063
sg4
S'http://www.tdcj.state.tx.us/death_row/dr_info/wilkersonponchai.jpg'
p3064
sg6
I999011
sg7
I28
sg8
VHarris
p3065
sg10
VBlack
p3066
sg12
I210
sg13
g14
(S'\x07\xd0\x03\x0e\x00\x00\x00\x00\x00\x00'
p3067
tp3068
Rp3069
sg18
VWilkerson
p3070
sg20
S'http://www.tdcj.state.tx.us/death_row/dr_info/no_last_statement.html'
p3071
sa(dp3072
g2
VOdell
p3073
sg4
S'http://www.tdcj.state.tx.us/death_row/dr_info/barnesodell.jpg'
p3074
sg6
I998
sg7
I31
sg8
VLubbock
p3075
sg10
VBlack
p3076
sg12
I209
sg13
g14
(S'\x07\xd0\x03\x01\x00\x00\x00\x00\x00\x00'
p3077
tp3078
Rp3079
sg18
VBarnes, Jr.
p3080
sg20
S'http://www.tdcj.state.tx.us/death_row/dr_info/barnesodelllast.html'
p3081
sa(dp3082
g2
VBetty
p3083
sg4
S'http://www.tdcj.state.tx.us/death_row/dr_info/beetsbetty.jpg'
p3084
sg6
I810
sg7
I62
sg8
VHenderson
p3085
sg10
VWhite
p3086
sg12
I208
sg13
g14
(S'\x07\xd0\x02\x18\x00\x00\x00\x00\x00\x00'
p3087
tp3088
Rp3089
sg18
VBeets
p3090
sg20
S'http://www.tdcj.state.tx.us/death_row/dr_info/no_last_statement.html'
p3091
sa(dp3092
g2
VCornelius
p3093
sg4
S'http://www.tdcj.state.tx.us/death_row/dr_info/gosscornelius.jpg'
p3094
sg6
I912
sg7
I38
sg8
VDallas
p3095
sg10
VBlack
p3096
sg12
I207
sg13
g14
(S'\x07\xd0\x02\x17\x00\x00\x00\x00\x00\x00'
p3097
tp3098
Rp3099
sg18
VGoss
p3100
sg20
S'http://www.tdcj.state.tx.us/death_row/dr_info/gosscorneliuslast.html'
p3101
sa(dp3102
g2
VJames
p3103
sg4
S'http://www.tdcj.state.tx.us/death_row/dr_info/morelandjames.jpg'
p3104
sg6
I741
sg7
I39
sg8
VHenderson
p3105
sg10
VWhite
p3106
sg12
I206
sg13
g14
(S'\x07\xd0\x01\x1b\x00\x00\x00\x00\x00\x00'
p3107
tp3108
Rp3109
sg18
VMoreland
p3110
sg20
S'http://www.tdcj.state.tx.us/death_row/dr_info/morelandjameslast.html'
p3111
sa(dp3112
g2
VGlen
p3113
sg4
S'http://www.tdcj.state.tx.us/death_row/dr_info/mcginnisglen.jpg'
p3114
sg6
I999039
sg7
I27
sg8
VMontgomery
p3115
sg10
VBlack
p3116
sg12
I205
sg13
g14
(S'\x07\xd0\x01\x19\x00\x00\x00\x00\x00\x00'
p3117
tp3118
Rp3119
sg18
VMcGinnis
p3120
sg20
S'http://www.tdcj.state.tx.us/death_row/dr_info/no_last_statement.html'
p3121
sa(dp3122
g2
VBilly
p3123
sg4
S'http://www.tdcj.state.tx.us/death_row/dr_info/hughesbilly.html'
p3124
sg6
I556
sg7
I47
sg8
VMatagorda
p3125
sg10
VWhite
p3126
sg12
I204
sg13
g14
(S'\x07\xd0\x01\x18\x00\x00\x00\x00\x00\x00'
p3127
tp3128
Rp3129
sg18
VHughes, Jr.
p3130
sg20
S'http://www.tdcj.state.tx.us/death_row/dr_info/hughesbillylast.html'
p3131
sa(dp3132
g2
VLarry
p3133
sg4
S'http://www.tdcj.state.tx.us/death_row/dr_info/robisonlarry.jpg'
p3134
sg6
I748
sg7
I42
sg8
VTarrant
p3135
sg10
VWhite
p3136
sg12
I203
sg13
g14
(S'\x07\xd0\x01\x15\x00\x00\x00\x00\x00\x00'
p3137
tp3138
Rp3139
sg18
VRobison
p3140
sg20
S'http://www.tdcj.state.tx.us/death_row/dr_info/no_last_statement.html'
p3141
sa(dp3142
g2
VDavid
p3143
sg4
S'http://www.tdcj.state.tx.us/death_row/dr_info/hicksdavid.jpg'
p3144
sg6
I930
sg7
I38
sg8
VFreestone
p3145
sg10
VBlack
p3146
sg12
I202
sg13
g14
(S'\x07\xd0\x01\x14\x00\x00\x00\x00\x00\x00'
p3147
tp3148
Rp3149
sg18
VHicks
p3150
sg20
S'http://www.tdcj.state.tx.us/death_row/dr_info/hicksdavidlast.html'
p3151
sa(dp3152
g2
VSpencer
p3153
sg4
S'http://www.tdcj.state.tx.us/death_row/dr_info/goodmanspencer.jpg'
p3154
sg6
I999031
sg7
I31
sg8
VFort Bend
p3155
sg10
VWhite
p3156
sg12
I201
sg13
g14
(S'\x07\xd0\x01\x12\x00\x00\x00\x00\x00\x00'
p3157
tp3158
Rp3159
sg18
VGoodman
p3160
sg20
S'http://www.tdcj.state.tx.us/death_row/dr_info/goodmanspencerlast.html'
p3161
sa(dp3162
g2
VEarl
p3163
sg4
S'http://www.tdcj.state.tx.us/death_row/dr_info/heiselbetzearl.jpg'
p3164
sg6
I999014
sg7
I48
sg8
VSabine
p3165
sg10
VWhite
p3166
sg12
I200
sg13
g14
(S'\x07\xd0\x01\x0c\x00\x00\x00\x00\x00\x00'
p3167
tp3168
Rp3169
sg18
VHeiselbetz, Jr.
p3170
sg20
S'http://www.tdcj.state.tx.us/death_row/dr_info/heiselbetzearllast.html'
p3171
sa(dp3172
g2
VSammie
p3173
sg4
S'http://www.tdcj.state.tx.us/death_row/dr_info/feldersammie.jpg'
p3174
sg6
I550
sg7
I54
sg8
VHarris
p3175
sg10
VBlack
p3176
sg12
I199
sg13
g14
(S'\x07\xcf\x0c\x0f\x00\x00\x00\x00\x00\x00'
p3177
tp3178
Rp3179
sg18
VFelder, Jr.
p3180
sg20
S'http://www.tdcj.state.tx.us/death_row/dr_info/feldersammielast.html'
p3181
sa(dp3182
g2
VRobert
p3183
sg4
S'http://www.tdcj.state.tx.us/death_row/dr_info/atworthrobert.jpg'
p3184
sg6
I999199
sg7
I30
sg8
VDallas
p3185
sg10
VWhite
p3186
sg12
I198
sg13
g14
(S'\x07\xcf\x0c\x0e\x00\x00\x00\x00\x00\x00'
p3187
tp3188
Rp3189
sg18
VAtworth
p3190
sg20
S'http://www.tdcj.state.tx.us/death_row/dr_info/atworthrobertlast.html'
p3191
sa(dp3192
g2
VJames
p3193
sg4
S'http://www.tdcj.state.tx.us/death_row/dr_info/beathardjames.jpg'
p3194
sg6
I785
sg7
I42
sg8
VTrinity
p3195
sg10
VWhite
p3196
sg12
I197
sg13
g14
(S'\x07\xcf\x0c\t\x00\x00\x00\x00\x00\x00'
p3197
tp3198
Rp3199
sg18
VBeathard
p3200
sg20
S'http://www.tdcj.state.tx.us/death_row/dr_info/beathardjameslast.html'
p3201
sa(dp3202
g2
VDavid
p3203
sg4
S'http://www.tdcj.state.tx.us/death_row/dr_info/longdavid.jpg'
p3204
sg6
I862
sg7
I46
sg8
VDallas
p3205
sg10
VWhite
p3206
sg12
I196
sg13
g14
(S'\x07\xcf\x0c\x08\x00\x00\x00\x00\x00\x00'
p3207
tp3208
Rp3209
sg18
VLong
p3210
sg20
S'http://www.tdcj.state.tx.us/death_row/dr_info/longdavidlast.html'
p3211
sa(dp3212
g2
VJose
p3213
sg4
S'http://www.tdcj.state.tx.us/death_row/dr_info/gutierrezjose.jpg'
p3214
sg6
I970
sg7
I39
sg8
VBrazos
p3215
sg10
VHispanic
p3216
sg12
I195
sg13
g14
(S'\x07\xcf\x0b\x12\x00\x00\x00\x00\x00\x00'
p3217
tp3218
Rp3219
sg18
VGutierrez
p3220
sg20
S'http://www.tdcj.state.tx.us/death_row/dr_info/gutierrezjoselast.html'
p3221
sa(dp3222
g2
VJohn
p3223
sg4
S'http://www.tdcj.state.tx.us/death_row/dr_info/lambjohn.jpg'
p3224
sg6
I734
sg7
I42
sg8
VHunt
p3225
sg10
VWhite
p3226
sg12
I194
sg13
g14
(S'\x07\xcf\x0b\x11\x00\x00\x00\x00\x00\x00'
p3227
tp3228
Rp3229
sg18
VLamb
p3230
sg20
S'http://www.tdcj.state.tx.us/death_row/dr_info/lambjohnlast.html'
p3231
sa(dp3232
g2
VDesmond
p3233
sg4
S'http://www.tdcj.state.tx.us/death_row/dr_info/jenningsdesmond.jpg'
p3234
sg6
I999161
sg7
I28
sg8
VTarrant
p3235
sg10
VBlack
p3236
sg12
I193
sg13
g14
(S'\x07\xcf\x0b\x10\x00\x00\x00\x00\x00\x00'
p3237
tp3238
Rp3239
sg18
VJennings
p3240
sg20
S'http://www.tdcj.state.tx.us/death_row/dr_info/no_last_statement.html'
p3241
sa(dp3242
g2
VDomingo
p3243
sg4
S'http://www.tdcj.state.tx.us/death_row/dr_info/cantudomingo.jpg'
p3244
sg6
I924
sg7
I31
sg8
VDallas
p3245
sg10
VHispanic
p3246
sg12
I192
sg13
g14
(S'\x07\xcf\n\x1c\x00\x00\x00\x00\x00\x00'
p3247
tp3248
Rp3249
sg18
VCantu, Jr.
p3250
sg20
S'http://www.tdcj.state.tx.us/death_row/dr_info/cantudomingolast.html'
p3251
sa(dp3252
g2
VJerry
p3253
sg4
S'http://www.tdcj.state.tx.us/death_row/dr_info/mcfaddenjerry.jpg'
p3254
sg6
I875
sg7
I51
sg8
VUpshur
p3255
sg10
VWhite
p3256
sg12
I191
sg13
g14
(S'\x07\xcf\n\x0e\x00\x00\x00\x00\x00\x00'
p3257
tp3258
Rp3259
sg18
VMcFadden
p3260
sg20
S'http://www.tdcj.state.tx.us/death_row/dr_info/no_last_statement.html'
p3261
sa(dp3262
g2
VAlvin
p3263
sg4
S'http://www.tdcj.state.tx.us/death_row/dr_info/cranealvin.jpg'
p3264
sg6
I888
sg7
I41
sg8
VDenton
p3265
sg10
VWhite
p3266
sg12
I190
sg13
g14
(S'\x07\xcf\n\x0c\x00\x00\x00\x00\x00\x00'
p3267
tp3268
Rp3269
sg18
VCrane
p3270
sg20
S'http://www.tdcj.state.tx.us/death_row/dr_info/cranealvinlast.html'
p3271
sa(dp3272
g2
VRichard
p3273
sg4
S'http://www.tdcj.state.tx.us/death_row/dr_info/smithrichard.jpg'
p3274
sg6
I999116
sg7
I43
sg8
VHarris
p3275
sg10
VWhite
p3276
sg12
I189
sg13
g14
(S'\x07\xcf\t\x15\x00\x00\x00\x00\x00\x00'
p3277
tp3278
Rp3279
sg18
VSmith
p3280
sg20
S'http://www.tdcj.state.tx.us/death_row/dr_info/no_last_statement.html'
p3281
sa(dp3282
g2
VWilliam
p3283
sg4
S'http://www.tdcj.state.tx.us/death_row/dr_info/daviswilliam.jpg'
p3284
sg6
I614
sg7
I42
sg8
VHarris
p3285
sg10
VBlack
p3286
sg12
I188
sg13
g14
(S'\x07\xcf\t\x0e\x00\x00\x00\x00\x00\x00'
p3287
tp3288
Rp3289
sg18
VDavis
p3290
sg20
S'http://www.tdcj.state.tx.us/death_row/dr_info/daviswilliamlast.html'
p3291
sa(dp3292
g2
VWillis
p3293
sg4
S'http://www.tdcj.state.tx.us/death_row/dr_info/barneswillis.jpg'
p3294
sg6
I935
sg7
I51
sg8
VHarris
p3295
sg10
VBlack
p3296
sg12
I187
sg13
g14
(S'\x07\xcf\t\n\x00\x00\x00\x00\x00\x00'
p3297
tp3298
Rp3299
sg18
VBarnes
p3300
sg20
S'http://www.tdcj.state.tx.us/death_row/dr_info/barneswillislast.html'
p3301
sa(dp3302
g2
VRaymond
p3303
sg4
S'http://www.tdcj.state.tx.us/death_row/dr_info/_jonesrj.jpg'
p3304
sg6
I959
sg7
I39
sg8
VJefferson
p3305
sg10
VBlack
p3306
sg12
I186
sg13
g14
(S'\x07\xcf\t\x01\x00\x00\x00\x00\x00\x00'
p3307
tp3308
Rp3309
sg18
VJones
p3310
sg20
S'http://www.tdcj.state.tx.us/death_row/dr_info/no_last_statement.html'
p3311
sa(dp3312
g2
VJoe
p3313
sg4
S'http://www.tdcj.state.tx.us/death_row/dr_info/trevinojoe.jpg'
p3314
sg6
I767
sg7
I37
sg8
VTarrant
p3315
sg10
VHispanic
p3316
sg12
I185
sg13
g14
(S'\x07\xcf\x08\x12\x00\x00\x00\x00\x00\x00'
p3317
tp3318
Rp3319
sg18
VTrevino, Jr.
p3320
sg20
S'http://www.tdcj.state.tx.us/death_row/dr_info/no_last_statement.html'
p3321
sa(dp3322
g2
VJames
p3323
sg4
S'http://www.tdcj.state.tx.us/death_row/dr_info/earhartjames.jpg'
p3324
sg6
I905
sg7
I56
sg8
VLee
p3325
sg10
VWhite
p3326
sg12
I184
sg13
g14
(S'\x07\xcf\x08\x0b\x00\x00\x00\x00\x00\x00'
p3327
tp3328
Rp3329
sg18
VEarhart
p3330
sg20
S'http://www.tdcj.state.tx.us/death_row/dr_info/no_last_statement.html'
p3331
sa(dp3332
g2
VKenneth
p3333
sg4
S'http://www.tdcj.state.tx.us/death_row/dr_info/dunnkenneth.jpg'
p3334
sg6
I675
sg7
I39
sg8
VHarris
p3335
sg10
VBlack
p3336
sg12
I183
sg13
g14
(S'\x07\xcf\x08\n\x00\x00\x00\x00\x00\x00'
p3337
tp3338
Rp3339
sg18
VDunn
p3340
sg20
S'http://www.tdcj.state.tx.us/death_row/dr_info/no_last_statement.html'
p3341
sa(dp3342
g2
VCharles
p3343
sg4
S'http://www.tdcj.state.tx.us/death_row/dr_info/boydcharles.jpg'
p3344
sg6
I891
sg7
I39
sg8
VDallas
p3345
sg10
VBlack
p3346
sg12
I182
sg13
g14
(S'\x07\xcf\x08\x05\x00\x00\x00\x00\x00\x00'
p3347
tp3348
Rp3349
sg18
VBoyd
p3350
sg20
S'http://www.tdcj.state.tx.us/death_row/dr_info/boydcharleslast.html'
p3351
sa(dp3352
g2
VRicky
p3353
sg4
S'http://www.tdcj.state.tx.us/death_row/dr_info/blackmonricky.jpg'
p3354
sg6
I893
sg7
I41
sg8
VShelby
p3355
sg10
VWhite
p3356
sg12
I181
sg13
g14
(S'\x07\xcf\x08\x04\x00\x00\x00\x00\x00\x00'
p3357
tp3358
Rp3359
sg18
VBlackmon
p3360
sg20
S'http://www.tdcj.state.tx.us/death_row/dr_info/no_last_statement.html'
p3361
sa(dp3362
g2
VTyrone
p3363
sg4
S'http://www.tdcj.state.tx.us/death_row/dr_info/fullertyrone.jpg'
p3364
sg6
I934
sg7
I35
sg8
VGrayson
p3365
sg10
VBlack
p3366
sg12
I180
sg13
g14
(S'\x07\xcf\x07\x07\x00\x00\x00\x00\x00\x00'
p3367
tp3368
Rp3369
sg18
VFuller
p3370
sg20
S'http://www.tdcj.state.tx.us/death_row/dr_info/fullertyronelast.html'
p3371
sa(dp3372
g2
VCharles
p3373
sg4
S'http://www.tdcj.state.tx.us/death_row/dr_info/tuttlecharles.jpg'
p3374
sg6
I999183
sg7
I35
sg8
VSmith
p3375
sg10
VWhite
p3376
sg12
I179
sg13
g14
(S'\x07\xcf\x07\x01\x00\x00\x00\x00\x00\x00'
p3377
tp3378
Rp3379
sg18
VTuttle
p3380
sg20
S'http://www.tdcj.state.tx.us/death_row/dr_info/tuttlecharleslast.html'
p3381
sa(dp3382
g2
VJoseph
p3383
sg4
S'http://www.tdcj.state.tx.us/death_row/dr_info/faulderjoseph.jpg'
p3384
sg6
I580
sg7
I61
sg8
VGregg
p3385
sg10
VWhite
p3386
sg12
I178
sg13
g14
(S'\x07\xcf\x06\x11\x00\x00\x00\x00\x00\x00'
p3387
tp3388
Rp3389
sg18
VFaulder
p3390
sg20
S'http://www.tdcj.state.tx.us/death_row/dr_info/no_last_statement.html'
p3391
sa(dp3392
g2
VWilliam
p3393
sg4
S'http://www.tdcj.state.tx.us/death_row/dr_info/littlewilliam.jpg'
p3394
sg6
I788
sg7
I38
sg8
VLiberty
p3395
sg10
VWhite
p3396
sg12
I177
sg13
g14
(S'\x07\xcf\x06\x01\x00\x00\x00\x00\x00\x00'
p3397
tp3398
Rp3399
sg18
VLittle
p3400
sg20
S'http://www.tdcj.state.tx.us/death_row/dr_info/no_last_statement.html'
p3401
sa(dp3402
g2
VClydell
p3403
sg4
S'http://www.tdcj.state.tx.us/death_row/dr_info/colemanclydell.jpg'
p3404
sg6
I968
sg7
I62
sg8
VMcLennan
p3405
sg10
VBlack
p3406
sg12
I176
sg13
g14
(S'\x07\xcf\x05\x05\x00\x00\x00\x00\x00\x00'
p3407
tp3408
Rp3409
sg18
VColeman
p3410
sg20
S'http://www.tdcj.state.tx.us/death_row/dr_info/no_last_statement.html'
p3411
sa(dp3412
g2
VJose
p3413
sg4
S'http://www.tdcj.state.tx.us/death_row/dr_info/delacruzjose.jpg'
p3414
sg6
I908
sg7
I31
sg8
VNueces
p3415
sg10
VHispanic
p3416
sg12
I175
sg13
g14
(S'\x07\xcf\x05\x04\x00\x00\x00\x00\x00\x00'
p3417
tp3418
Rp3419
sg18
VDe La Cruz
p3420
sg20
S'http://www.tdcj.state.tx.us/death_row/dr_info/no_last_statement.html'
p3421
sa(dp3422
g2
VAaron
p3423
sg4
S'http://www.tdcj.state.tx.us/death_row/dr_info/foustaaron.html'
p3424
sg6
I999268
sg7
I26
sg8
VTarrant
p3425
sg10
VWhite
p3426
sg12
I174
sg13
g14
(S'\x07\xcf\x04\x1c\x00\x00\x00\x00\x00\x00'
p3427
tp3428
Rp3429
sg18
VFoust
p3430
sg20
S'http://www.tdcj.state.tx.us/death_row/dr_info/foustaaronlast.html'
p3431
sa(dp3432
g2
VExcell
p3433
sg4
S'http://www.tdcj.state.tx.us/death_row/dr_info/whiteexcell.jpg'
p3434
sg6
I511
sg7
I61
sg8
VCollin
p3435
sg10
VWhite
p3436
sg12
I173
sg13
g14
(S'\x07\xcf\x03\x1e\x00\x00\x00\x00\x00\x00'
p3437
tp3438
Rp3439
sg18
VWhite
p3440
sg20
S'http://www.tdcj.state.tx.us/death_row/dr_info/no_last_statement.html'
p3441
sa(dp3442
g2
VCharles
p3443
sg4
S'http://www.tdcj.state.tx.us/death_row/dr_info/rectorcharles.jpg'
p3444
sg6
I721
sg7
I44
sg8
VTravis
p3445
sg10
VBlack
p3446
sg12
I172
sg13
g14
(S'\x07\xcf\x03\x1a\x00\x00\x00\x00\x00\x00'
p3447
tp3448
Rp3449
sg18
VRector
p3450
sg20
S'http://www.tdcj.state.tx.us/death_row/dr_info/rectorcharleslast.html'
p3451
sa(dp3452
g2
VNorman
p3453
sg4
S'http://www.tdcj.state.tx.us/death_row/dr_info/greennorman.jpg'
p3454
sg6
I805
sg7
I38
sg8
VBexar
p3455
sg10
VBlack
p3456
sg12
I171
sg13
g14
(S'\x07\xcf\x02\x18\x00\x00\x00\x00\x00\x00'
p3457
tp3458
Rp3459
sg18
VGreen
p3460
sg20
S'http://www.tdcj.state.tx.us/death_row/dr_info/no_last_statement.html'
p3461
sa(dp3462
g2
VAndrew
p3463
sg4
S'http://www.tdcj.state.tx.us/death_row/dr_info/cantuandrew.jpg'
p3464
sg6
I999
sg7
I30
sg8
VTaylor
p3465
sg10
VHispanic
p3466
sg12
I170
sg13
g14
(S'\x07\xcf\x02\x10\x00\x00\x00\x00\x00\x00'
p3467
tp3468
Rp3469
sg18
VCantu
p3470
sg20
S'http://www.tdcj.state.tx.us/death_row/dr_info/no_last_statement.html'
p3471
sa(dp3472
g2
VDanny
p3473
sg4
S'http://www.tdcj.state.tx.us/death_row/dr_info/barberdanny.jpg'
p3474
sg6
I673
sg7
I43
sg8
VDallas
p3475
sg10
VWhite
p3476
sg12
I169
sg13
g14
(S'\x07\xcf\x02\x0b\x00\x00\x00\x00\x00\x00'
p3477
tp3478
Rp3479
sg18
VBarber
p3480
sg20
S'http://www.tdcj.state.tx.us/death_row/dr_info/barberdannylast.html'
p3481
sa(dp3482
g2
VGeorge
p3483
sg4
S'http://www.tdcj.state.tx.us/death_row/dr_info/cordovageorge.jpg'
p3484
sg6
I706
sg7
I39
sg8
VBexar
p3485
sg10
VHispanic
p3486
sg12
I168
sg13
g14
(S'\x07\xcf\x02\n\x00\x00\x00\x00\x00\x00'
p3487
tp3488
Rp3489
sg18
VCordova
p3490
sg20
S'http://www.tdcj.state.tx.us/death_row/dr_info/cordovageorgelast.html'
p3491
sa(dp3492
g2
VMartin
p3493
sg4
S'http://www.tdcj.state.tx.us/death_row/dr_info/vegamartin.jpg'
p3494
sg6
I932
sg7
I52
sg8
VCaldwell
p3495
sg10
VHispanic
p3496
sg12
I167
sg13
g14
(S'\x07\xcf\x01\x1a\x00\x00\x00\x00\x00\x00'
p3497
tp3498
Rp3499
sg18
VVega
p3500
sg20
S'http://www.tdcj.state.tx.us/death_row/dr_info/vegamartinlast.html'
p3501
sa(dp3502
g2
VTroy
p3503
sg4
S'http://www.tdcj.state.tx.us/death_row/dr_info/farristroy.jpg'
p3504
sg6
I831
sg7
I36
sg8
VTarrant
p3505
sg10
VWhite
p3506
sg12
I166
sg13
g14
(S'\x07\xcf\x01\r\x00\x00\x00\x00\x00\x00'
p3507
tp3508
Rp3509
sg18
VFarris
p3510
sg20
S'http://www.tdcj.state.tx.us/death_row/dr_info/farristroylast.html'
p3511
sa(dp3512
g2
VJohn
p3513
sg4
S'http://www.tdcj.state.tx.us/death_row/dr_info/moodyjohn.jpg'
p3514
sg6
I933
sg7
I46
sg8
VTaylor
p3515
sg10
VWhite
p3516
sg12
I165
sg13
g14
(S'\x07\xcf\x01\x05\x00\x00\x00\x00\x00\x00'
p3517
tp3518
Rp3519
sg18
VMoody
p3520
sg20
S'http://www.tdcj.state.tx.us/death_row/dr_info/moodyjohnlast.html'
p3521
sa(dp3522
g2
VJames
p3523
sg4
S'http://www.tdcj.state.tx.us/death_row/dr_info/meanesjames.jpg'
p3524
sg6
I689
sg7
I42
sg8
VHarris
p3525
sg10
VBlack
p3526
sg12
I164
sg13
g14
(S'\x07\xce\x0c\x0f\x00\x00\x00\x00\x00\x00'
p3527
tp3528
Rp3529
sg18
VMeanes
p3530
sg20
S'http://www.tdcj.state.tx.us/death_row/dr_info/meanesjameslast.html'
p3531
sa(dp3532
g2
VJeff
p3533
sg4
S'http://www.tdcj.state.tx.us/death_row/dr_info/emeryjeff.jpg'
p3534
sg6
I830
sg7
I49
sg8
VBrazos
p3535
sg10
VWhite
p3536
sg12
I163
sg13
g14
(S'\x07\xce\x0c\x08\x00\x00\x00\x00\x00\x00'
p3537
tp3538
Rp3539
sg18
VEmery
p3540
sg20
S'http://www.tdcj.state.tx.us/death_row/dr_info/emeryjefflast.html'
p3541
sa(dp3542
g2
VDaniel
p3543
sg4
S'http://www.tdcj.state.tx.us/death_row/dr_info/corwindaniel.jpg'
p3544
sg6
I969
sg7
I40
sg8
VMontgomery
p3545
sg10
VWhite
p3546
sg12
I162
sg13
g14
(S'\x07\xce\x0c\x07\x00\x00\x00\x00\x00\x00'
p3547
tp3548
Rp3549
sg18
VCorwin
p3550
sg20
S'http://www.tdcj.state.tx.us/death_row/dr_info/corwindaniellast.html'
p3551
sa(dp3552
g2
VKenneth
p3553
sg4
S'http://www.tdcj.state.tx.us/death_row/dr_info/mcduffkenneth.jpg'
p3554
sg6
I999055
sg7
I52
sg8
VHarris
p3555
sg10
VWhite
p3556
sg12
I161
sg13
g14
(S'\x07\xce\x0b\x11\x00\x00\x00\x00\x00\x00'
p3557
tp3558
Rp3559
sg18
VMcDuff
p3560
sg20
S'http://www.tdcj.state.tx.us/death_row/dr_info/mcduffkennethlast.html'
p3561
sa(dp3562
g2
VJonathan
p3563
sg4
S'http://www.tdcj.state.tx.us/death_row/dr_info/noblesjohnathan.jpg'
p3564
sg6
I885
sg7
I37
sg8
VTravis
p3565
sg10
VWhite
p3566
sg12
I160
sg13
g14
(S'\x07\xce\n\x07\x00\x00\x00\x00\x00\x00'
p3567
tp3568
Rp3569
sg18
VNobles
p3570
sg20
S'http://www.tdcj.state.tx.us/death_row/dr_info/noblesjonathanlast.html'
p3571
sa(dp3572
g2
VJavier
p3573
sg4
S'http://www.tdcj.state.tx.us/death_row/dr_info/cruzjavier.jpg'
p3574
sg6
I999061
sg7
I41
sg8
VBexar
p3575
sg10
VHispanic
p3576
sg12
I159
sg13
g14
(S'\x07\xce\n\x01\x00\x00\x00\x00\x00\x00'
p3577
tp3578
Rp3579
sg18
VCruz
p3580
sg20
S'http://www.tdcj.state.tx.us/death_row/dr_info/cruzjavierlast.html'
p3581
sa(dp3582
g2
VDavid
p3583
sg4
S'http://www.tdcj.state.tx.us/death_row/dr_info/castillodavid.jpg'
p3584
sg6
I770
sg7
I43
sg8
VHidalgo
p3585
sg10
VHispanic
p3586
sg12
I158
sg13
g14
(S'\x07\xce\x08\x17\x00\x00\x00\x00\x00\x00'
p3587
tp3588
Rp3589
sg18
VCastillo
p3590
sg20
S'http://www.tdcj.state.tx.us/death_row/dr_info/castillodavidlast.html'
p3591
sa(dp3592
g2
VDelbert
p3593
sg4
S'http://www.tdcj.state.tx.us/death_row/dr_info/teaguedelbert.jpg'
p3594
sg6
I849
sg7
I35
sg8
VTarrant
p3595
sg10
VWhite
p3596
sg12
I157
sg13
g14
(S'\x07\xce\t\t\x00\x00\x00\x00\x00\x00'
p3597
tp3598
Rp3599
sg18
VTeague, Jr.
p3600
sg20
S'http://www.tdcj.state.tx.us/death_row/dr_info/teaguedelbertlast.html'
p3601
sa(dp3602
g2
VGenaro
p3603
sg4
S'http://www.tdcj.state.tx.us/death_row/dr_info/camachogenero.jpg'
p3604
sg6
I972
sg7
I43
sg8
VDallas
p3605
sg10
VHispanic
p3606
sg12
I156
sg13
g14
(S'\x07\xce\x08\x1a\x00\x00\x00\x00\x00\x00'
p3607
tp3608
Rp3609
sg18
VCamacho, Jr.
p3610
sg20
S'http://www.tdcj.state.tx.us/death_row/dr_info/camachogenarolast.html'
p3611
sa(dp3612
g2
VLeopoldo
p3613
sg4
S'http://www.tdcj.state.tx.us/death_row/dr_info/narvaizleopoldo.jpg'
p3614
sg6
I923
sg7
I30
sg8
VBexar
p3615
sg10
VHispanic
p3616
sg12
I155
sg13
g14
(S'\x07\xce\x06\x1a\x00\x00\x00\x00\x00\x00'
p3617
tp3618
Rp3619
sg18
VNarvaiz
p3620
sg20
S'http://www.tdcj.state.tx.us/death_row/dr_info/no_last_statement.html'
p3621
sa(dp3622
g2
VJohnny
p3623
sg4
S'http://www.tdcj.state.tx.us/death_row/dr_info/pylesjohnny.jpg'
p3624
sg6
I724
sg7
I40
sg8
VDallas
p3625
sg10
VWhite
p3626
sg12
I154
sg13
g14
(S'\x07\xce\x06\x0f\x00\x00\x00\x00\x00\x00'
p3627
tp3628
Rp3629
sg18
VPyles
p3630
sg20
S'http://www.tdcj.state.tx.us/death_row/dr_info/pylesjohnnylast.html'
p3631
sa(dp3632
g2
VClifford
p3633
sg4
S'http://www.tdcj.state.tx.us/death_row/dr_info/boggessclifford.html'
p3634
sg6
I887
sg7
I32
sg8
VClay
p3635
sg10
VWhite
p3636
sg12
I153
sg13
g14
(S'\x07\xce\x06\x0b\x00\x00\x00\x00\x00\x00'
p3637
tp3638
Rp3639
sg18
VBoggess
p3640
sg20
S'http://www.tdcj.state.tx.us/death_row/dr_info/boggesscliffordlast.html'
p3641
sa(dp3642
g2
VPedro
p3643
sg4
S'http://www.tdcj.state.tx.us/death_row/dr_info/munizpedro.jpg'
p3644
sg6
I575
sg7
I41
sg8
VWilliamson
p3645
sg10
VHispanic
p3646
sg12
I152
sg13
g14
(S'\x07\xce\x05\x13\x00\x00\x00\x00\x00\x00'
p3647
tp3648
Rp3649
sg18
VMuniz
p3650
sg20
S'http://www.tdcj.state.tx.us/death_row/dr_info/munizpedrolast.html'
p3651
sa(dp3652
g2
VRobert
p3653
sg4
S'http://www.tdcj.state.tx.us/death_row/dr_info/carterrobertanthony.jpg'
p3654
sg6
I708
sg7
I34
sg8
VHarris
p3655
sg10
VBlack
p3656
sg12
I151
sg13
g14
(S'\x07\xce\x05\x12\x00\x00\x00\x00\x00\x00'
p3657
tp3658
Rp3659
sg18
VCarter
p3660
sg20
S'http://www.tdcj.state.tx.us/death_row/dr_info/carterrobertanthonylast.html'
p3661
sa(dp3662
g2
VFrank
p3663
sg4
S'http://www.tdcj.state.tx.us/death_row/dr_info/mcfarlandfrank.jpg'
p3664
sg6
I963
sg7
I34
sg8
VTarrant
p3665
sg10
VWhite
p3666
sg12
I150
sg13
g14
(S'\x07\xce\x04\x1d\x00\x00\x00\x00\x00\x00'
p3667
tp3668
Rp3669
sg18
VMcFarland
p3670
sg20
S'http://www.tdcj.state.tx.us/death_row/dr_info/mcfarlandfranklast.html'
p3671
sa(dp3672
g2
VLesley
p3673
sg4
S'http://www.tdcj.state.tx.us/death_row/dr_info/goschlesley.jpg'
p3674
sg6
I842
sg7
I42
sg8
VVictoria
p3675
sg10
VWhite
p3676
sg12
I149
sg13
g14
(S'\x07\xce\x04\x18\x00\x00\x00\x00\x00\x00'
p3677
tp3678
Rp3679
sg18
VGosch
p3680
sg20
S'http://www.tdcj.state.tx.us/death_row/dr_info/no_last_statement.html'
p3681
sa(dp3682
g2
VJoseph
p3683
sg4
S'http://www.tdcj.state.tx.us/death_row/dr_info/cannonjoseph.jpg'
p3684
sg6
I634
sg7
I38
sg8
VBexar
p3685
sg10
VWhite
p3686
sg12
I148
sg13
g14
(S'\x07\xce\x04\x16\x00\x00\x00\x00\x00\x00'
p3687
tp3688
Rp3689
sg18
VCannon
p3690
sg20
S'http://www.tdcj.state.tx.us/death_row/dr_info/cannonjosephlast.html'
p3691
sa(dp3692
g2
VJerry
p3693
sg4
S'http://www.tdcj.state.tx.us/death_row/dr_info/hoguejerry.jpg'
p3694
sg6
I660
sg7
I47
sg8
VTarrant
p3695
sg10
VWhite
p3696
sg12
I147
sg13
g14
(S'\x07\xce\x03\x0b\x00\x00\x00\x00\x00\x00'
p3697
tp3698
Rp3699
sg18
VHogue
p3700
sg20
S'http://www.tdcj.state.tx.us/death_row/dr_info/hoguejerrylast.html'
p3701
sa(dp3702
g2
VSteven
p3703
sg4
S'http://www.tdcj.state.tx.us/death_row/dr_info/renfrosteven.jpg'
p3704
sg6
I999229
sg7
I40
sg8
VHarrison
p3705
sg10
VWhite
p3706
sg12
I146
sg13
g14
(S'\x07\xce\x02\t\x00\x00\x00\x00\x00\x00'
p3707
tp3708
Rp3709
sg18
VRenfro
p3710
sg20
S'http://www.tdcj.state.tx.us/death_row/dr_info/renfrostevenlast.html'
p3711
sa(dp3712
g2
VKarla
p3713
sg4
S'http://www.tdcj.state.tx.us/death_row/dr_info/tuckerkarla.jpg'
p3714
sg6
I777
sg7
I38
sg8
VHarris
p3715
sg10
VWhite
p3716
sg12
I145
sg13
g14
(S'\x07\xce\x02\x03\x00\x00\x00\x00\x00\x00'
p3717
tp3718
Rp3719
sg18
VTucker
p3720
sg20
S'http://www.tdcj.state.tx.us/death_row/dr_info/tuckerkarlalast.html'
p3721
sa(dp3722
g2
VMichael
p3723
sg4
S'http://www.tdcj.state.tx.us/death_row/dr_info/lockhartmichael.jpg'
p3724
sg6
I917
sg7
I37
sg8
VBexar
p3725
sg10
VWhite
p3726
sg12
I144
sg13
g14
(S'\x07\xcd\x0c\t\x00\x00\x00\x00\x00\x00'
p3727
tp3728
Rp3729
sg18
VLockhart
p3730
sg20
S'http://www.tdcj.state.tx.us/death_row/dr_info/lockhartmichaellast.html'
p3731
sa(dp3732
g2
VCharlie
p3733
sg4
S'http://www.tdcj.state.tx.us/death_row/dr_info/livingstoncharlie.jpg'
p3734
sg6
I802
sg7
I35
sg8
VHarris
p3735
sg10
VBlack
p3736
sg12
I143
sg13
g14
(S'\x07\xcd\x0b\x15\x00\x00\x00\x00\x00\x00'
p3737
tp3738
Rp3739
sg18
VLivingston
p3740
sg20
S'http://www.tdcj.state.tx.us/death_row/dr_info/livingstoncharleslast.html'
p3741
sa(dp3742
g2
VMichael
p3743
sg4
S'http://www.tdcj.state.tx.us/death_row/dr_info/sharpmichael.jpg'
p3744
sg6
I740
sg7
I43
sg8
VCrockett
p3745
sg10
VWhite
p3746
sg12
I142
sg13
g14
(S'\x07\xcd\x0b\x13\x00\x00\x00\x00\x00\x00'
p3747
tp3748
Rp3749
sg18
VSharp
p3750
sg20
S'http://www.tdcj.state.tx.us/death_row/dr_info/sharpmichaellast.html'
p3751
sa(dp3752
g2
VAaron
p3753
sg4
S'http://www.tdcj.state.tx.us/death_row/dr_info/fulleraaron.jpg'
p3754
sg6
I964
sg7
I30
sg8
VDawson
p3755
sg10
VWhite
p3756
sg12
I141
sg13
g14
(S'\x07\xcd\x0b\x06\x00\x00\x00\x00\x00\x00'
p3757
tp3758
Rp3759
sg18
VFuller
p3760
sg20
S'http://www.tdcj.state.tx.us/death_row/dr_info/fulleraaronlast.html'
p3761
sa(dp3762
g2
VAua
p3763
sg4
S'http://www.tdcj.state.tx.us/death_row/dr_info/lautiaua.jpg'
p3764
sg6
I843
sg7
I43
sg8
VHarris
p3765
sg10
VOther
p3766
sg12
I140
sg13
g14
(S'\x07\xcd\x0b\x04\x00\x00\x00\x00\x00\x00'
p3767
tp3768
Rp3769
sg18
VLauti
p3770
sg20
S'http://www.tdcj.state.tx.us/death_row/dr_info/lautiaualast.html'
p3771
sa(dp3772
g2
VKenneth
p3773
sg4
S'http://www.tdcj.state.tx.us/death_row/dr_info/ransomkenneth.jpg'
p3774
sg6
I772
sg7
I34
sg8
VHarris
p3775
sg10
VBlack
p3776
sg12
I139
sg13
g14
(S'\x07\xcd\n\x1c\x00\x00\x00\x00\x00\x00'
p3777
tp3778
Rp3779
sg18
VRansom
p3780
sg20
S'http://www.tdcj.state.tx.us/death_row/dr_info/ransomkennethlast.html'
p3781
sa(dp3782
g2
VRicky
p3783
sg4
S'http://www.tdcj.state.tx.us/death_row/dr_info/greenricky.jpg'
p3784
sg6
I984
sg7
I36
sg8
VTarrant
p3785
sg10
VWhite
p3786
sg12
I138
sg13
g14
(S'\x07\xcd\n\x08\x00\x00\x00\x00\x00\x00'
p3787
tp3788
Rp3789
sg18
VGreen
p3790
sg20
S'http://www.tdcj.state.tx.us/death_row/dr_info/greenrickylast.html'
p3791
sa(dp3792
g2
VDwight
p3793
sg4
S'http://www.tdcj.state.tx.us/death_row/dr_info/adanandusdwight.jpg'
p3794
sg6
I940
sg7
I41
sg8
VBexar
p3795
sg10
VBlack
p3796
sg12
I137
sg13
g14
(S'\x07\xcd\n\x01\x00\x00\x00\x00\x00\x00'
p3797
tp3798
Rp3799
sg18
VAdanandus
p3800
sg20
S'http://www.tdcj.state.tx.us/death_row/dr_info/adanandusdwightlast.html'
p3801
sa(dp3802
g2
VJohn
p3803
sg4
S'http://www.tdcj.state.tx.us/death_row/dr_info/cockrumjohn.jpg'
p3804
sg6
I854
sg7
I38
sg8
VBowie
p3805
sg10
VWhite
p3806
sg12
I136
sg13
g14
(S'\x07\xcd\t\x1e\x00\x00\x00\x00\x00\x00'
p3807
tp3808
Rp3809
sg18
VCockrum
p3810
sg20
S'http://www.tdcj.state.tx.us/death_row/dr_info/cockrumjohnlast.html'
p3811
sa(dp3812
g2
VBenjamin
p3813
sg4
S'http://www.tdcj.state.tx.us/death_row/dr_info/stonebenjamin.jpg'
p3814
sg6
I999187
sg7
I45
sg8
VNueces
p3815
sg10
VWhite
p3816
sg12
I135
sg13
g14
(S'\x07\xcd\t\x19\x00\x00\x00\x00\x00\x00'
p3817
tp3818
Rp3819
sg18
VStone
p3820
sg20
S'http://www.tdcj.state.tx.us/death_row/dr_info/stonebenjaminlast.html'
p3821
sa(dp3822
g2
VJessel
p3823
sg4
S'http://www.tdcj.state.tx.us/death_row/dr_info/turnerjessel.jpg'
p3824
sg6
I895
sg7
I37
sg8
VHarris
p3825
sg10
VBlack
p3826
sg12
I134
sg13
g14
(S'\x07\xcd\t\x16\x00\x00\x00\x00\x00\x00'
p3827
tp3828
Rp3829
sg18
VTurner
p3830
sg20
S'http://www.tdcj.state.tx.us/death_row/dr_info/turnerjessellast.html'
p3831
sa(dp3832
g2
VJames
p3833
sg4
S'http://www.tdcj.state.tx.us/death_row/dr_info/davisjames.jpg'
p3834
sg6
I786
sg7
I34
sg8
VTravis
p3835
sg10
VBlack
p3836
sg12
I133
sg13
g14
(S'\x07\xcd\t\t\x00\x00\x00\x00\x00\x00'
p3837
tp3838
Rp3839
sg18
VDavis
p3840
sg20
S'http://www.tdcj.state.tx.us/death_row/dr_info/davisjameslast.html'
p3841
sa(dp3842
g2
VRobert
p3843
sg4
S'http://www.tdcj.state.tx.us/death_row/dr_info/westrobert.jpg'
p3844
sg6
I731
sg7
I35
sg8
VHarris
p3845
sg10
VWhite
p3846
sg12
I132
sg13
g14
(S'\x07\xcd\x07\x1d\x00\x00\x00\x00\x00\x00'
p3847
tp3848
Rp3849
sg18
VWest, Jr.
p3850
sg20
S'http://www.tdcj.state.tx.us/death_row/dr_info/westrobertlast.html'
p3851
sa(dp3852
g2
VIrineo
p3853
sg4
S'http://www.tdcj.state.tx.us/death_row/dr_info/montoyairineo.jpg'
p3854
sg6
I847
sg7
I29
sg8
VCameron
p3855
sg10
VHispanic
p3856
sg12
I131
sg13
g14
(S'\x07\xcd\x06\x12\x00\x00\x00\x00\x00\x00'
p3857
tp3858
Rp3859
sg18
VMontoya
p3860
sg20
S'http://www.tdcj.state.tx.us/death_row/dr_info/montoyairineolast.html'
p3861
sa(dp3862
g2
VEddie
p3863
sg4
S'http://www.tdcj.state.tx.us/death_row/dr_info/johnsoneddie.jpg'
p3864
sg6
I898
sg7
I44
sg8
VAransas
p3865
sg10
VBlack
p3866
sg12
I130
sg13
g14
(S'\x07\xcd\x06\x11\x00\x00\x00\x00\x00\x00'
p3867
tp3868
Rp3869
sg18
VJohnson
p3870
sg20
S'http://www.tdcj.state.tx.us/death_row/dr_info/johnsoneddielast.html'
p3871
sa(dp3872
g2
VDavid
p3873
sg4
S'http://www.tdcj.state.tx.us/death_row/dr_info/stokerdavid.jpg'
p3874
sg6
I892
sg7
I38
sg8
VHale
p3875
sg10
VWhite
p3876
sg12
I129
sg13
g14
(S'\x07\xcd\x06\x10\x00\x00\x00\x00\x00\x00'
p3877
tp3878
Rp3879
sg18
VStoker
p3880
sg20
S'http://www.tdcj.state.tx.us/death_row/dr_info/stokerdavidlast.html'
p3881
sa(dp3882
g2
VEarl
p3883
sg4
S'http://www.tdcj.state.tx.us/death_row/dr_info/behringerearl.jpg'
p3884
sg6
I914
sg7
I33
sg8
VTarrant
p3885
sg10
VWhite
p3886
sg12
I128
sg13
g14
(S'\x07\xcd\x06\x0b\x00\x00\x00\x00\x00\x00'
p3887
tp3888
Rp3889
sg18
VBehringer
p3890
sg20
S'http://www.tdcj.state.tx.us/death_row/dr_info/behringerearllast.html'
p3891
sa(dp3892
g2
VDavis
p3893
sg4
S'http://www.tdcj.state.tx.us/death_row/dr_info/losadadavis.jpg'
p3894
sg6
I798
sg7
I32
sg8
VCameron
p3895
sg10
VHispanic
p3896
sg12
I127
sg13
g14
(S'\x07\xcd\x06\x04\x00\x00\x00\x00\x00\x00'
p3897
tp3898
Rp3899
sg18
VLosada
p3900
sg20
S'http://www.tdcj.state.tx.us/death_row/dr_info/losadadavislast.html'
p3901
sa(dp3902
g2
VDorsie
p3903
sg4
S'http://www.tdcj.state.tx.us/death_row/dr_info/johnsondorsie.jpg'
p3904
sg6
I850
sg7
I30
sg8
VScurry
p3905
sg10
VBlack
p3906
sg12
I126
sg13
g14
(S'\x07\xcd\x06\x04\x00\x00\x00\x00\x00\x00'
p3907
tp3908
Rp3909
sg18
VJohnson, Jr.
p3910
sg20
S'http://www.tdcj.state.tx.us/death_row/dr_info/johnsondorsielast.html'
p3911
sa(dp3912
g2
VKenneth
p3913
sg4
S'http://www.tdcj.state.tx.us/death_row/dr_info/harriskenneth.jpg'
p3914
sg6
I901
sg7
I34
sg8
VHarris
p3915
sg10
VBlack
p3916
sg12
I125
sg13
g14
(S'\x07\xcd\x06\x03\x00\x00\x00\x00\x00\x00'
p3917
tp3918
Rp3919
sg18
VHarris
p3920
sg20
S'http://www.tdcj.state.tx.us/death_row/dr_info/harriskennethlast.html'
p3921
sa(dp3922
g2
VPatrick
p3923
sg4
S'http://www.tdcj.state.tx.us/death_row/dr_info/rogerspatrick.jpg'
p3924
sg6
I816
sg7
I33
sg8
VCollin
p3925
sg10
VBlack
p3926
sg12
I124
sg13
g14
(S'\x07\xcd\x06\x02\x00\x00\x00\x00\x00\x00'
p3927
tp3928
Rp3929
sg18
VRogers
p3930
sg20
S'http://www.tdcj.state.tx.us/death_row/dr_info/rogerspatricklast.html'
p3931
sa(dp3932
g2
VRobert
p3933
sg4
S'http://www.tdcj.state.tx.us/death_row/dr_info/maddenrobert.jpg'
p3934
sg6
I822
sg7
I33
sg8
VLeon
p3935
sg10
VWhite
p3936
sg12
I123
sg13
g14
(S'\x07\xcd\x05\x1c\x00\x00\x00\x00\x00\x00'
p3937
tp3938
Rp3939
sg18
VMadden
p3940
sg20
S'http://www.tdcj.state.tx.us/death_row/dr_info/maddenrobertlast.html'
p3941
sa(dp3942
g2
VLarry
p3943
sg4
S'http://www.tdcj.state.tx.us/death_row/dr_info/whitelarry.jpg'
p3944
sg6
I640
sg7
I47
sg8
VHarris
p3945
sg10
VWhite
p3946
sg12
I122
sg13
g14
(S'\x07\xcd\x05\x16\x00\x00\x00\x00\x00\x00'
p3947
tp3948
Rp3949
sg18
VWhite
p3950
sg20
S'http://www.tdcj.state.tx.us/death_row/dr_info/whitelarrylast.html'
p3951
sa(dp3952
g2
VBruce
p3953
sg4
S'http://www.tdcj.state.tx.us/death_row/dr_info/callinsbruce.jpg'
p3954
sg6
I717
sg7
I37
sg8
VTarrant
p3955
sg10
VBlack
p3956
sg12
I121
sg13
g14
(S'\x07\xcd\x05\x15\x00\x00\x00\x00\x00\x00'
p3957
tp3958
Rp3959
sg18
VCallins
p3960
sg20
S'http://www.tdcj.state.tx.us/death_row/dr_info/callinsbrucelast.html'
p3961
sa(dp3962
g2
VClarence
p3963
sg4
S'http://www.tdcj.state.tx.us/death_row/dr_info/lackeyclarence.jpg'
p3964
sg6
I591
sg7
I42
sg8
VTom Green
p3965
sg10
VWhite
p3966
sg12
I120
sg13
g14
(S'\x07\xcd\x05\x14\x00\x00\x00\x00\x00\x00'
p3967
tp3968
Rp3969
sg18
VLackey
p3970
sg20
S'http://www.tdcj.state.tx.us/death_row/dr_info/lackeyclarencelast.html'
p3971
sa(dp3972
g2
VRichard
p3973
sg4
S'http://www.tdcj.state.tx.us/death_row/dr_info/drinkardrichard.jpg'
p3974
sg6
I846
sg7
I39
sg8
VHarris
p3975
sg10
VWhite
p3976
sg12
I119
sg13
g14
(S'\x07\xcd\x05\x13\x00\x00\x00\x00\x00\x00'
p3977
tp3978
Rp3979
sg18
VDrinkard
p3980
sg20
S'http://www.tdcj.state.tx.us/death_row/dr_info/no_last_statement.html'
p3981
sa(dp3982
g2
VClifton
p3983
sg4
S'http://www.tdcj.state.tx.us/death_row/dr_info/belyeuclifton.jpg'
p3984
sg6
I841
sg7
I38
sg8
VMcLennan
p3985
sg10
VWhite
p3986
sg12
I118
sg13
g14
(S'\x07\xcd\x05\x10\x00\x00\x00\x00\x00\x00'
p3987
tp3988
Rp3989
sg18
VBelyeu
p3990
sg20
S'http://www.tdcj.state.tx.us/death_row/dr_info/belyeucliftonlast.html'
p3991
sa(dp3992
g2
VAnthony
p3993
sg4
S'http://www.tdcj.state.tx.us/death_row/dr_info/westleyanthony.jpg'
p3994
sg6
I797
sg7
I36
sg8
VHarris
p3995
sg10
VBlack
p3996
sg12
I117
sg13
g14
(S'\x07\xcd\x05\r\x00\x00\x00\x00\x00\x00'
p3997
tp3998
Rp3999
sg18
VWestley
p4000
sg20
S'http://www.tdcj.state.tx.us/death_row/dr_info/westleyanthonylast.html'
p4001
sa(dp4002
g2
VTerry
p4003
sg4
S'http://www.tdcj.state.tx.us/death_row/dr_info/washingtonterry.jpg'
p4004
sg6
I884
sg7
I33
sg8
VWalker
p4005
sg10
VBlack
p4006
sg12
I116
sg13
g14
(S'\x07\xcd\x05\x06\x00\x00\x00\x00\x00\x00'
p4007
tp4008
Rp4009
sg18
VWashington
p4010
sg20
S'http://www.tdcj.state.tx.us/death_row/dr_info/no_last_statement.html'
p4011
sa(dp4012
g2
VErnest
p4013
sg4
S'http://www.tdcj.state.tx.us/death_row/dr_info/baldreeernest.jpg'
p4014
sg6
I855
sg7
I55
sg8
VNavarro
p4015
sg10
VWhite
p4016
sg12
I115
sg13
g14
(S'\x07\xcd\x04\x1d\x00\x00\x00\x00\x00\x00'
p4017
tp4018
Rp4019
sg18
VBaldree
p4020
sg20
S'http://www.tdcj.state.tx.us/death_row/dr_info/no_last_statement.html'
p4021
sa(dp4022
g2
VBenjamin
p4023
sg4
S'http://www.tdcj.state.tx.us/death_row/dr_info/boylebenjamin.jpg'
p4024
sg6
I853
sg7
I53
sg8
VPotter
p4025
sg10
VWhite
p4026
sg12
I114
sg13
g14
(S'\x07\xcd\x04\x15\x00\x00\x00\x00\x00\x00'
p4027
tp4028
Rp4029
sg18
VBoyle
p4030
sg20
S'http://www.tdcj.state.tx.us/death_row/dr_info/no_last_statement.html'
p4031
sa(dp4032
g2
VKenneth
p4033
sg4
S'http://www.tdcj.state.tx.us/death_row/dr_info/gentrykenneth.jpg'
p4034
sg6
I760
sg7
I36
sg8
VDenton
p4035
sg10
VWhite
p4036
sg12
I113
sg13
g14
(S'\x07\xcd\x04\x10\x00\x00\x00\x00\x00\x00'
p4037
tp4038
Rp4039
sg18
VGentry
p4040
sg20
S'http://www.tdcj.state.tx.us/death_row/dr_info/gentrykennethlast.html'
p4041
sa(dp4042
g2
VBilly
p4043
sg4
S'http://www.tdcj.state.tx.us/death_row/dr_info/woodsbillyjoe.jpg'
p4044
sg6
I552
sg7
I50
sg8
VHarris
p4045
sg10
VWhite
p4046
sg12
I112
sg13
g14
(S'\x07\xcd\x04\x0e\x00\x00\x00\x00\x00\x00'
p4047
tp4048
Rp4049
sg18
VWoods
p4050
sg20
S'http://www.tdcj.state.tx.us/death_row/dr_info/no_last_statement.html'
p4051
sa(dp4052
g2
VDavid
p4053
sg4
S'http://www.tdcj.state.tx.us/death_row/dr_info/spencedavid.jpg'
p4054
sg6
I773
sg7
I40
sg8
VMcLennan
p4055
sg10
VWhite
p4056
sg12
I111
sg13
g14
(S'\x07\xcd\x04\x03\x00\x00\x00\x00\x00\x00'
p4057
tp4058
Rp4059
sg18
VSpence
p4060
sg20
S'http://www.tdcj.state.tx.us/death_row/dr_info/spencedavidlast.html'
p4061
sa(dp4062
g2
VDavid
p4063
sg4
S'http://www.tdcj.state.tx.us/death_row/dr_info/hermandavid.jpg'
p4064
sg6
I999003
sg7
I39
sg8
VTarrant
p4065
sg10
VWhite
p4066
sg12
I110
sg13
g14
(S'\x07\xcd\x04\x02\x00\x00\x00\x00\x00\x00'
p4067
tp4068
Rp4069
sg18
VHerman
p4070
sg20
S'http://www.tdcj.state.tx.us/death_row/dr_info/hermandavidlast.html'
p4071
sa(dp4072
g2
VJohn
p4073
sg4
S'http://www.tdcj.state.tx.us/death_row/dr_info/barefieldjohn.jpg'
p4074
sg6
I844
sg7
I32
sg8
VHarris
p4075
sg10
VBlack
p4076
sg12
I109
sg13
g14
(S'\x07\xcd\x03\x0c\x00\x00\x00\x00\x00\x00'
p4077
tp4078
Rp4079
sg18
VBarefield
p4080
sg20
S'http://www.tdcj.state.tx.us/death_row/dr_info/barefieldjohnlast.html'
p4081
sa(dp4082
g2
VRichard
p4083
sg4
S'http://www.tdcj.state.tx.us/death_row/dr_info/brimagerichard.jpg'
p4084
sg6
I899
sg7
I42
sg8
VKleberg
p4085
sg10
VWhite
p4086
sg12
I108
sg13
g14
(S'\x07\xcd\x02\n\x00\x00\x00\x00\x00\x00'
p4087
tp4088
Rp4089
sg18
VBrimage, Jr.
p4090
sg20
S'http://www.tdcj.state.tx.us/death_row/dr_info/brimagerichardlast.html'
p4091
sa(dp4092
g2
VJoe
p4093
sg4
S'http://www.tdcj.state.tx.us/death_row/dr_info/gonzalesjoe.jpg'
p4094
sg6
I999177
sg7
I36
sg8
VPotter
p4095
sg10
VHispanic
p4096
sg12
I107
sg13
g14
(S'\x07\xcc\t\x12\x00\x00\x00\x00\x00\x00'
p4097
tp4098
Rp4099
sg18
VGonzales, Jr.
p4100
sg20
S'http://www.tdcj.state.tx.us/death_row/dr_info/gonzalesjoelast.html'
p4101
sa(dp4102
g2
VKenneth
p4103
sg4
S'http://www.tdcj.state.tx.us/death_row/dr_info/granvielkenneth.jpg'
p4104
sg6
I533
sg7
I45
sg8
VTarrant
p4105
sg10
VBlack
p4106
sg12
I106
sg13
g14
(S'\x07\xcc\x02\x1b\x00\x00\x00\x00\x00\x00'
p4107
tp4108
Rp4109
sg18
VGranviel
p4110
sg20
S'http://www.tdcj.state.tx.us/death_row/dr_info/no_last_statement.html'
p4111
sa(dp4112
g2
VLeo
p4113
sg4
S'http://www.tdcj.state.tx.us/death_row/dr_info/jenkinsleo.jpg'
p4114
sg6
I967
sg7
I38
sg8
VHarris
p4115
sg10
VWhite
p4116
sg12
I105
sg13
g14
(S'\x07\xcc\x02\t\x00\x00\x00\x00\x00\x00'
p4117
tp4118
Rp4119
sg18
VJenkins
p4120
sg20
S'http://www.tdcj.state.tx.us/death_row/dr_info/no_last_statement.html'
p4121
sa(dp4122
g2
VJames
p4123
sg4
S'http://www.tdcj.state.tx.us/death_row/dr_info/briddlejames.jpg'
p4124
sg6
I711
sg7
I40
sg8
VHarris
p4125
sg10
VWhite
p4126
sg12
I104
sg13
g14
(S'\x07\xcb\x0c\x0c\x00\x00\x00\x00\x00\x00'
p4127
tp4128
Rp4129
sg18
VBriddle
p4130
sg20
S'http://www.tdcj.state.tx.us/death_row/dr_info/no_last_statement.html'
p4131
sa(dp4132
g2
VEsequel
p4133
sg4
S'http://www.tdcj.state.tx.us/death_row/dr_info/bandaesequel.jpg'
p4134
sg6
I863
sg7
I31
sg8
VHamilton
p4135
sg10
VHispanic
p4136
sg12
I103
sg13
g14
(S'\x07\xcb\x0c\x0b\x00\x00\x00\x00\x00\x00'
p4137
tp4138
Rp4139
sg18
VBanda
p4140
sg20
S'http://www.tdcj.state.tx.us/death_row/dr_info/no_last_statement.html'
p4141
sa(dp4142
g2
VHai
p4143
sg4
S'http://www.tdcj.state.tx.us/death_row/dr_info/vuonghai.jpg'
p4144
sg6
I904
sg7
I40
sg8
VJefferson
p4145
sg10
VOther
p4146
sg12
I102
sg13
g14
(S'\x07\xcb\x0c\x07\x00\x00\x00\x00\x00\x00'
p4147
tp4148
Rp4149
sg18
VVuong
p4150
sg20
S'http://www.tdcj.state.tx.us/death_row/dr_info/vuonghailast.html'
p4151
sa(dp4152
g2
VBernard
p4153
sg4
S'http://www.tdcj.state.tx.us/death_row/dr_info/amosbernard.jpg'
p4154
sg6
I926
sg7
I33
sg8
VDallas
p4155
sg10
VBlack
p4156
sg12
I101
sg13
g14
(S'\x07\xcb\x0c\x06\x00\x00\x00\x00\x00\x00'
p4157
tp4158
Rp4159
sg18
VAmos
p4160
sg20
S'http://www.tdcj.state.tx.us/death_row/dr_info/no_last_statement.html'
p4161
sa(dp4162
g2
VHarold
p4163
sg4
S'http://www.tdcj.state.tx.us/death_row/dr_info/laneharold.jpg'
p4164
sg6
I745
sg7
I50
sg8
VDallas
p4165
sg10
VWhite
p4166
sg12
I100
sg13
g14
(S'\x07\xcb\n\x04\x00\x00\x00\x00\x00\x00'
p4167
tp4168
Rp4169
sg18
VLane
p4170
sg20
S'http://www.tdcj.state.tx.us/death_row/dr_info/no_last_statement.html'
p4171
sa(dp4172
g2
VCarl
p4173
sg4
S'http://www.tdcj.state.tx.us/death_row/dr_info/johnsoncarl.jpg'
p4174
sg6
I633
sg7
I40
sg8
VHarris
p4175
sg10
VBlack
p4176
sg12
I99
sg13
g14
(S'\x07\xcb\t\x13\x00\x00\x00\x00\x00\x00'
p4177
tp4178
Rp4179
sg18
VJohnson
p4180
sg20
S'http://www.tdcj.state.tx.us/death_row/dr_info/johnsoncarllast.html'
p4181
sa(dp4182
g2
VVernon
p4183
sg4
S'http://www.tdcj.state.tx.us/death_row/dr_info/sattiewhitevernon.jpg'
p4184
sg6
I857
sg7
I40
sg8
VBexar
p4185
sg10
VBlack
p4186
sg12
I98
sg13
g14
(S'\x07\xcb\x08\x0f\x00\x00\x00\x00\x00\x00'
p4187
tp4188
Rp4189
sg18
VSattiewhite
p4190
sg20
S'http://www.tdcj.state.tx.us/death_row/dr_info/sattiewhitevernonlast.html'
p4191
sa(dp4192
g2
VKarl
p4193
sg4
S'http://www.tdcj.state.tx.us/death_row/dr_info/hammondkarl.jpg'
p4194
sg6
I865
sg7
I31
sg8
VBexar
p4195
sg10
VBlack
p4196
sg12
I97
sg13
g14
(S'\x07\xcb\x06\x15\x00\x00\x00\x00\x00\x00'
p4197
tp4198
Rp4199
sg18
VHammond
p4200
sg20
S'http://www.tdcj.state.tx.us/death_row/dr_info/no_last_statement.html'
p4201
sa(dp4202
g2
VJohn
p4203
sg4
S'http://www.tdcj.state.tx.us/death_row/dr_info/fearancejohn.jpg'
p4204
sg6
I626
sg7
I41
sg8
VDallas
p4205
sg10
VBlack
p4206
sg12
I96
sg13
g14
(S'\x07\xcb\x06\x14\x00\x00\x00\x00\x00\x00'
p4207
tp4208
Rp4209
sg18
VFearance
p4210
sg20
S'http://www.tdcj.state.tx.us/death_row/dr_info/fearancejohnlast.html'
p4211
sa(dp4212
g2
VRonald
p4213
sg4
S'http://www.tdcj.state.tx.us/death_row/dr_info/allridgeronald.jpg'
p4214
sg6
I818
sg7
I35
sg8
VTarrant
p4215
sg10
VBlack
p4216
sg12
I95
sg13
g14
(S'\x07\xcb\x06\x08\x00\x00\x00\x00\x00\x00'
p4217
tp4218
Rp4219
sg18
VAllridge
p4220
sg20
S'http://www.tdcj.state.tx.us/death_row/dr_info/no_last_statement.html'
p4221
sa(dp4222
g2
VFletcher
p4223
sg4
S'http://www.tdcj.state.tx.us/death_row/dr_info/mannfletcher.jpg'
p4224
sg6
I705
sg7
I34
sg8
VDallas
p4225
sg10
VWhite
p4226
sg12
I94
sg13
g14
(S'\x07\xcb\x06\x01\x00\x00\x00\x00\x00\x00'
p4227
tp4228
Rp4229
sg18
VMann
p4230
sg20
S'http://www.tdcj.state.tx.us/death_row/dr_info/mannfletcherlast.html'
p4231
sa(dp4232
g2
VNoble
p4233
sg4
S'http://www.tdcj.state.tx.us/death_row/dr_info/maysnoble.jpg'
p4234
sg6
I674
sg7
I42
sg8
VWilbarger
p4235
sg10
VWhite
p4236
sg12
I93
sg13
g14
(S'\x07\xcb\x04\x06\x00\x00\x00\x00\x00\x00'
p4237
tp4238
Rp4239
sg18
VMays
p4240
sg20
S'http://www.tdcj.state.tx.us/death_row/dr_info/no_last_statement.html'
p4241
sa(dp4242
g2
VSamuel
p4243
sg4
S'http://www.tdcj.state.tx.us/death_row/dr_info/hawkinssamuel.jpg'
p4244
sg6
I590
sg7
I52
sg8
VLubbock
p4245
sg10
VBlack
p4246
sg12
I92
sg13
g14
(S'\x07\xcb\x02\x15\x00\x00\x00\x00\x00\x00'
p4247
tp4248
Rp4249
sg18
VHawkins
p4250
sg20
S'http://www.tdcj.state.tx.us/death_row/dr_info/no_last_statement.html'
p4251
sa(dp4252
g2
VBilly
p4253
sg4
S'http://www.tdcj.state.tx.us/death_row/dr_info/gardnerbilly.jpg'
p4254
sg6
I751
sg7
I52
sg8
VDallas
p4255
sg10
VWhite
p4256
sg12
I91
sg13
g14
(S'\x07\xcb\x02\x10\x00\x00\x00\x00\x00\x00'
p4257
tp4258
Rp4259
sg18
VGardner
p4260
sg20
S'http://www.tdcj.state.tx.us/death_row/dr_info/gardnerbillylast.html'
p4261
sa(dp4262
g2
VJeffery
p4263
sg4
S'http://www.tdcj.state.tx.us/death_row/dr_info/motleyjeffery.jpg'
p4264
sg6
I789
sg7
I29
sg8
VHarris
p4265
sg10
VWhite
p4266
sg12
I90
sg13
g14
(S'\x07\xcb\x02\x07\x00\x00\x00\x00\x00\x00'
p4267
tp4268
Rp4269
sg18
VMotley
p4270
sg20
S'http://www.tdcj.state.tx.us/death_row/dr_info/motleyjefferylast.html'
p4271
sa(dp4272
g2
VWillie
p4273
sg4
S'http://www.tdcj.state.tx.us/death_row/dr_info/wiliamwillie.jpg'
p4274
sg6
I677
sg7
I38
sg8
VHarris
p4275
sg10
VBlack
p4276
sg12
I89
sg13
g14
(S'\x07\xcb\x01\x1f\x00\x00\x00\x00\x00\x00'
p4277
tp4278
Rp4279
sg18
VWilliams
p4280
sg20
S'http://www.tdcj.state.tx.us/death_row/dr_info/williamswillielast.html'
p4281
sa(dp4282
g2
VClifton
p4283
sg4
S'http://www.tdcj.state.tx.us/death_row/dr_info/russellclifton.jpg'
p4284
sg6
I658
sg7
I38
sg8
VTaylor
p4285
sg10
VWhite
p4286
sg12
I88
sg13
g14
(S'\x07\xcb\x01\x1f\x00\x00\x00\x00\x00\x00'
p4287
tp4288
Rp4289
sg18
VRussell, Jr.
p4290
sg20
S'http://www.tdcj.state.tx.us/death_row/dr_info/russellcliftonlast.html'
p4291
sa(dp4292
g2
VMario
p4293
sg4
S'http://www.tdcj.state.tx.us/death_row/dr_info/marquezmario.jpg'
p4294
sg6
I776
sg7
I36
sg8
VBexar
p4295
sg10
VHispanic
p4296
sg12
I87
sg13
g14
(S'\x07\xcb\x01\x11\x00\x00\x00\x00\x00\x00'
p4297
tp4298
Rp4299
sg18
VMarquez
p4300
sg20
S'http://www.tdcj.state.tx.us/death_row/dr_info/marquezmariolast.html'
p4301
sa(dp4302
g2
VJesse
p4303
sg4
S'http://www.tdcj.state.tx.us/death_row/dr_info/jacobsjesse.jpg'
p4304
sg6
I872
sg7
I44
sg8
VWalker
p4305
sg10
VWhite
p4306
sg12
I86
sg13
g14
(S'\x07\xcb\x01\x04\x00\x00\x00\x00\x00\x00'
p4307
tp4308
Rp4309
sg18
VJacobs
p4310
sg20
S'http://www.tdcj.state.tx.us/death_row/dr_info/jacobsjesselast.html'
p4311
sa(dp4312
g2
VRaymond
p4313
sg4
S'http://www.tdcj.state.tx.us/death_row/dr_info/kinnamonraymond.jpg'
p4314
sg6
I808
sg7
I53
sg8
VHarris
p4315
sg10
VWhite
p4316
sg12
I85
sg13
g14
(S'\x07\xca\x0c\x0b\x00\x00\x00\x00\x00\x00'
p4317
tp4318
Rp4319
sg18
VKinnamon
p4320
sg20
S'http://www.tdcj.state.tx.us/death_row/dr_info/kinnamonraymondlast.html'
p4321
sa(dp4322
g2
VHerman
p4323
sg4
S'http://www.tdcj.state.tx.us/death_row/dr_info/clarkherman.jpg'
p4324
sg6
I715
sg7
I48
sg8
VHarris
p4325
sg10
VBlack
p4326
sg12
I84
sg13
g14
(S'\x07\xca\x0c\x06\x00\x00\x00\x00\x00\x00'
p4327
tp4328
Rp4329
sg18
VClark, Jr.
p4330
sg20
S'http://www.tdcj.state.tx.us/death_row/dr_info/clarkhermanlast.html'
p4331
sa(dp4332
g2
VWarren
p4333
sg4
S'http://www.tdcj.state.tx.us/death_row/dr_info/bridgewarren.jpg'
p4334
sg6
I668
sg7
I34
sg8
VGalveston
p4335
sg10
VWhite
p4336
sg12
I83
sg13
g14
(S'\x07\xca\x0b\x16\x00\x00\x00\x00\x00\x00'
p4337
tp4338
Rp4339
sg18
VBridge
p4340
sg20
S'http://www.tdcj.state.tx.us/death_row/dr_info/bridgewarrenlast.html'
p4341
sa(dp4342
g2
VWalter
p4343
sg4
S'http://www.tdcj.state.tx.us/death_row/dr_info/williamswalter.jpg'
p4344
sg6
I722
sg7
I32
sg8
VBexar
p4345
sg10
VBlack
p4346
sg12
I82
sg13
g14
(S'\x07\xca\n\x05\x00\x00\x00\x00\x00\x00'
p4347
tp4348
Rp4349
sg18
VWilliams
p4350
sg20
S'http://www.tdcj.state.tx.us/death_row/dr_info/williamswalterlast.html'
p4351
sa(dp4352
g2
VGeorge
p4353
sg4
S'http://www.tdcj.state.tx.us/death_row/dr_info/lottgeorge.jpg'
p4354
sg6
I999058
sg7
I47
sg8
VPotter
p4355
sg10
VWhite
p4356
sg12
I81
sg13
g14
(S'\x07\xca\t\x14\x00\x00\x00\x00\x00\x00'
p4357
tp4358
Rp4359
sg18
VLott
p4360
sg20
S'http://www.tdcj.state.tx.us/death_row/dr_info/no_last_statement.html'
p4361
sa(dp4362
g2
VJessie
p4363
sg4
S'http://www.tdcj.state.tx.us/death_row/dr_info/gutierrezjessie.jpg'
p4364
sg6
I971
sg7
I29
sg8
VBrazos
p4365
sg10
VHispanic
p4366
sg12
I80
sg13
g14
(S'\x07\xca\t\x10\x00\x00\x00\x00\x00\x00'
p4367
tp4368
Rp4369
sg18
VGutierrez
p4370
sg20
S'http://www.tdcj.state.tx.us/death_row/dr_info/gutierrezjessielast.html'
p4371
sa(dp4372
g2
VRobert
p4373
sg4
S'http://www.tdcj.state.tx.us/death_row/dr_info/drewrobert.jpg'
p4374
sg6
I755
sg7
I35
sg8
VHarris
p4375
sg10
VWhite
p4376
sg12
I79
sg13
g14
(S'\x07\xca\x08\x02\x00\x00\x00\x00\x00\x00'
p4377
tp4378
Rp4379
sg18
VDrew
p4380
sg20
S'http://www.tdcj.state.tx.us/death_row/dr_info/drewrobertlast.html'
p4381
sa(dp4382
g2
VDenton
p4383
sg4
S'http://www.tdcj.state.tx.us/death_row/dr_info/crankdenton.jpg'
p4384
sg6
I803
sg7
I38
sg8
VHarris
p4385
sg10
VWhite
p4386
sg12
I78
sg13
g14
(S'\x07\xca\x06\x0e\x00\x00\x00\x00\x00\x00'
p4387
tp4388
Rp4389
sg18
VCrank
p4390
sg20
S'http://www.tdcj.state.tx.us/death_row/dr_info/crankdentonlast.html'
p4391
sa(dp4392
g2
VStephen
p4393
sg4
S'http://www.tdcj.state.tx.us/death_row/dr_info/netherystephen.jpg'
p4394
sg6
I698
sg7
I33
sg8
VDallas
p4395
sg10
VWhite
p4396
sg12
I77
sg13
g14
(S'\x07\xca\x05\x1b\x00\x00\x00\x00\x00\x00'
p4397
tp4398
Rp4399
sg18
VNethery
p4400
sg20
S'http://www.tdcj.state.tx.us/death_row/dr_info/netherystephenlast.html'
p4401
sa(dp4402
g2
VPaul
p4403
sg4
S'http://www.tdcj.state.tx.us/death_row/dr_info/rougeaupaul.jpg'
p4404
sg6
I603
sg7
I46
sg8
VHarris
p4405
sg10
VBlack
p4406
sg12
I76
sg13
g14
(S'\x07\xca\x05\x03\x00\x00\x00\x00\x00\x00'
p4407
tp4408
Rp4409
sg18
VRougeau
p4410
sg20
S'http://www.tdcj.state.tx.us/death_row/dr_info/no_last_statement.html'
p4411
sa(dp4412
g2
VLarry
p4413
sg4
S'http://www.tdcj.state.tx.us/death_row/dr_info/andersonlarry.jpg'
p4414
sg6
I733
sg7
I41
sg8
VHarris
p4415
sg10
VWhite
p4416
sg12
I75
sg13
g14
(S'\x07\xca\x04\x1a\x00\x00\x00\x00\x00\x00'
p4417
tp4418
Rp4419
sg18
VAnderson
p4420
sg20
S'http://www.tdcj.state.tx.us/death_row/dr_info/no_last_statement.html'
p4421
sa(dp4422
g2
VRichard
p4423
sg4
S'http://www.tdcj.state.tx.us/death_row/dr_info/beaversrichard.jpg'
p4424
sg6
I916
sg7
I39
sg8
VHarris
p4425
sg10
VWhite
p4426
sg12
I74
sg13
g14
(S'\x07\xca\x04\x04\x00\x00\x00\x00\x00\x00'
p4427
tp4428
Rp4429
sg18
VBeavers
p4430
sg20
S'http://www.tdcj.state.tx.us/death_row/dr_info/no_last_statement.html'
p4431
sa(dp4432
g2
VFreddie
p4433
sg4
S'http://www.tdcj.state.tx.us/death_row/dr_info/webbfreddie.jpg'
p4434
sg6
I848
sg7
I33
sg8
VNueces
p4435
sg10
VBlack
p4436
sg12
I73
sg13
g14
(S'\x07\xca\x03\x1f\x00\x00\x00\x00\x00\x00'
p4437
tp4438
Rp4439
sg18
VWebb
p4440
sg20
S'http://www.tdcj.state.tx.us/death_row/dr_info/webbfreddielast.html'
p4441
sa(dp4442
g2
VHarold
p4443
sg4
S'http://www.tdcj.state.tx.us/death_row/dr_info/barnardharold.jpg'
p4444
sg6
I683
sg7
I51
sg8
VGalveston
p4445
sg10
VWhite
p4446
sg12
I72
sg13
g14
(S'\x07\xca\x02\x02\x00\x00\x00\x00\x00\x00'
p4447
tp4448
Rp4449
sg18
VBarnard
p4450
sg20
S'http://www.tdcj.state.tx.us/death_row/dr_info/barnardharoldlast.html'
p4451
sa(dp4452
g2
VClifford
p4453
sg4
S'http://www.tdcj.state.tx.us/death_row/dr_info/phillipsclifford.jpg'
p4454
sg6
I723
sg7
I59
sg8
VHarris
p4455
sg10
VBlack
p4456
sg12
I71
sg13
g14
(S'\x07\xc9\x0c\x0f\x00\x00\x00\x00\x00\x00'
p4457
tp4458
Rp4459
sg18
VPhillips
p4460
sg20
S'http://www.tdcj.state.tx.us/death_row/dr_info/phillipscliffordlast.html'
p4461
sa(dp4462
g2
VAnthony
p4463
sg4
S'http://www.tdcj.state.tx.us/death_row/dr_info/cookanthony.jpg'
p4464
sg6
I918
sg7
I34
sg8
VMilam
p4465
sg10
VWhite
p4466
sg12
I70
sg13
g14
(S'\x07\xc9\x0b\n\x00\x00\x00\x00\x00\x00'
p4467
tp4468
Rp4469
sg18
VCook
p4470
sg20
S'http://www.tdcj.state.tx.us/death_row/dr_info/cookanthonylast.html'
p4471
sa(dp4472
g2
VAntonio
p4473
sg4
S'http://www.tdcj.state.tx.us/death_row/dr_info/bonhamanotnio.jpg'
p4474
sg6
I700
sg7
I33
sg8
VHarris
p4475
sg10
VBlack
p4476
sg12
I69
sg13
g14
(S'\x07\xc9\t\x1c\x00\x00\x00\x00\x00\x00'
p4477
tp4478
Rp4479
sg18
VBonham
p4480
sg20
S'http://www.tdcj.state.tx.us/death_row/dr_info/no_last_statement.html'
p4481
sa(dp4482
g2
VJohnny
p4483
sg4
S'http://www.tdcj.state.tx.us/death_row/dr_info/jamesjohnny.jpg'
p4484
sg6
I839
sg7
I39
sg8
VChambers
p4485
sg10
VWhite
p4486
sg12
I68
sg13
g14
(S'\x07\xc9\t\x03\x00\x00\x00\x00\x00\x00'
p4487
tp4488
Rp4489
sg18
VJames
p4490
sg20
S'http://www.tdcj.state.tx.us/death_row/dr_info/no_last_statement.html'
p4491
sa(dp4492
g2
VRichard
p4493
sg4
S'http://www.tdcj.state.tx.us/death_row/dr_info/wilkersonrichard.jpg'
p4494
sg6
I756
sg7
I29
sg8
VHarris
p4495
sg10
VBlack
p4496
sg12
I67
sg13
g14
(S'\x07\xc9\x08\x1f\x00\x00\x00\x00\x00\x00'
p4497
tp4498
Rp4499
sg18
VWilkerson
p4500
sg20
S'http://www.tdcj.state.tx.us/death_row/dr_info/wilkersonrichardlast.html'
p4501
sa(dp4502
g2
VRuben
p4503
sg4
S'http://www.tdcj.state.tx.us/death_row/dr_info/canturuben.html'
p4504
sg6
I804
sg7
I26
sg8
VBexar
p4505
sg10
VHispanic
p4506
sg12
I66
sg13
g14
(S'\x07\xc9\x08\x18\x00\x00\x00\x00\x00\x00'
p4507
tp4508
Rp4509
sg18
VCantu
p4510
sg20
S'http://www.tdcj.state.tx.us/death_row/dr_info/no_last_statement.html'
p4511
sa(dp4512
g2
VCarl
p4513
sg4
S'http://www.tdcj.state.tx.us/death_row/dr_info/kellycarl.jpg'
p4514
sg6
I688
sg7
I34
sg8
VMcLennan
p4515
sg10
VBlack
p4516
sg12
I65
sg13
g14
(S'\x07\xc9\x08\x14\x00\x00\x00\x00\x00\x00'
p4517
tp4518
Rp4519
sg18
VKelly
p4520
sg20
S'http://www.tdcj.state.tx.us/death_row/dr_info/kellycarllast.html'
p4521
sa(dp4522
g2
VDavid
p4523
sg4
S'http://www.tdcj.state.tx.us/death_row/dr_info/hollanddavid.jpg'
p4524
sg6
I820
sg7
I58
sg8
VJefferson
p4525
sg10
VWhite
p4526
sg12
I64
sg13
g14
(S'\x07\xc9\x08\x0c\x00\x00\x00\x00\x00\x00'
p4527
tp4528
Rp4529
sg18
VHolland
p4530
sg20
S'http://www.tdcj.state.tx.us/death_row/dr_info/no_last_statement.html'
p4531
sa(dp4532
g2
VJoseph
p4533
sg4
S'http://www.tdcj.state.tx.us/death_row/dr_info/jerniganjoseph.jpg'
p4534
sg6
I699
sg7
I39
sg8
VNavarro
p4535
sg10
VWhite
p4536
sg12
I63
sg13
g14
(S'\x07\xc9\x08\x05\x00\x00\x00\x00\x00\x00'
p4537
tp4538
Rp4539
sg18
VJernigan
p4540
sg20
S'http://www.tdcj.state.tx.us/death_row/dr_info/no_last_statement.html'
p4541
sa(dp4542
g2
VDanny
p4543
sg4
S'http://www.tdcj.state.tx.us/death_row/dr_info/harrisdanny.jpg'
p4544
sg6
I649
sg7
I32
sg8
VBrazos
p4545
sg10
VBlack
p4546
sg12
I62
sg13
g14
(S'\x07\xc9\x07\x1e\x00\x00\x00\x00\x00\x00'
p4547
tp4548
Rp4549
sg18
VHarris
p4550
sg20
S'http://www.tdcj.state.tx.us/death_row/dr_info/harrisdannylast.html'
p4551
sa(dp4552
g2
VCurtis
p4553
sg4
S'http://www.tdcj.state.tx.us/death_row/dr_info/harriscurtis.jpg'
p4554
sg6
I637
sg7
I31
sg8
VBrazos
p4555
sg10
VBlack
p4556
sg12
I61
sg13
g14
(S'\x07\xc9\x07\x01\x00\x00\x00\x00\x00\x00'
p4557
tp4558
Rp4559
sg18
VHarris
p4560
sg20
S'http://www.tdcj.state.tx.us/death_row/dr_info/no_last_statement.html'
p4561
sa(dp4562
g2
VMarkum
p4563
sg4
S'http://www.tdcj.state.tx.us/death_row/dr_info/duffsmithmarkum.jpg'
p4564
sg6
I694
sg7
I46
sg8
VHarris
p4565
sg10
VWhite
p4566
sg12
I60
sg13
g14
(S'\x07\xc9\x06\x1d\x00\x00\x00\x00\x00\x00'
p4567
tp4568
Rp4569
sg18
VDuff-Smith
p4570
sg20
S'http://www.tdcj.state.tx.us/death_row/dr_info/duffsmithmarkumlast.html'
p4571
sa(dp4572
g2
VJohn
p4573
sg4
S'http://www.tdcj.state.tx.us/death_row/dr_info/sawyersjohn.jpg'
p4574
sg6
I742
sg7
I38
sg8
VHarris
p4575
sg10
VWhite
p4576
sg12
I59
sg13
g14
(S'\x07\xc9\x05\x12\x00\x00\x00\x00\x00\x00'
p4577
tp4578
Rp4579
sg18
VSawyers
p4580
sg20
S'http://www.tdcj.state.tx.us/death_row/dr_info/no_last_statement.html'
p4581
sa(dp4582
g2
VLeonel
p4583
sg4
S'http://www.tdcj.state.tx.us/death_row/dr_info/herreraleonel.jpg'
p4584
sg6
I702
sg7
I45
sg8
VCameron
p4585
sg10
VHispanic
p4586
sg12
I58
sg13
g14
(S'\x07\xc9\x05\x0c\x00\x00\x00\x00\x00\x00'
p4587
tp4588
Rp4589
sg18
VHerrera
p4590
sg20
S'http://www.tdcj.state.tx.us/death_row/dr_info/hererraleonellast.html'
p4591
sa(dp4592
g2
VDarryl
p4593
sg4
S'http://www.tdcj.state.tx.us/death_row/dr_info/stewartdarryl.jpg'
p4594
sg6
I664
sg7
I38
sg8
VHarris
p4595
sg10
VBlack
p4596
sg12
I57
sg13
g14
(S'\x07\xc9\x05\x04\x00\x00\x00\x00\x00\x00'
p4597
tp4598
Rp4599
sg18
VStewart
p4600
sg20
S'http://www.tdcj.state.tx.us/death_row/dr_info/no_last_statement.html'
p4601
sa(dp4602
g2
VRamon
p4603
sg4
S'http://www.tdcj.state.tx.us/death_row/dr_info/montoyaramon.jpg'
p4604
sg6
I737
sg7
I38
sg8
VDallas
p4605
sg10
VHispanic
p4606
sg12
I56
sg13
g14
(S'\x07\xc9\x03\x19\x00\x00\x00\x00\x00\x00'
p4607
tp4608
Rp4609
sg18
VMontoya
p4610
sg20
S'http://www.tdcj.state.tx.us/death_row/dr_info/no_last_statement.html'
p4611
sa(dp4612
g2
VCarlos
p4613
sg4
S'http://www.tdcj.state.tx.us/death_row/dr_info/santanacarlos.jpg'
p4614
sg6
I695
sg7
I40
sg8
VHarris
p4615
sg10
VHispanic
p4616
sg12
I55
sg13
g14
(S'\x07\xc9\x03\x17\x00\x00\x00\x00\x00\x00'
p4617
tp4618
Rp4619
sg18
VSantana
p4620
sg20
S'http://www.tdcj.state.tx.us/death_row/dr_info/no_last_statement.html'
p4621
sa(dp4622
g2
VKavin
p4623
sg4
S'http://www.tdcj.state.tx.us/death_row/dr_info/no_info_available.html'
p4624
sg6
I832
sg7
I29
sg8
VBrazoria
p4625
sg10
VBlack
p4626
sg12
I54
sg13
g14
(S'\x07\xc8\x0c\n\x00\x00\x00\x00\x00\x00'
p4627
tp4628
Rp4629
sg18
VLincecum
p4630
sg20
S'http://www.tdcj.state.tx.us/death_row/dr_info/no_last_statement.html'
p4631
sa(dp4632
g2
VJeffery
p4633
sg4
S'http://www.tdcj.state.tx.us/death_row/dr_info/no_info_available.html'
p4634
sg6
I647
sg7
I37
sg8
VHarris
p4635
sg10
VBlack
p4636
sg12
I53
sg13
g14
(S'\x07\xc8\x0b\x13\x00\x00\x00\x00\x00\x00'
p4637
tp4638
Rp4639
sg18
VGriffin
p4640
sg20
S'http://www.tdcj.state.tx.us/death_row/dr_info/no_last_statement.html'
p4641
sa(dp4642
g2
VJames
p4643
sg4
S'http://www.tdcj.state.tx.us/death_row/dr_info/demouchettejames.jpg'
p4644
sg6
I572
sg7
I37
sg8
VHarris
p4645
sg10
VBlack
p4646
sg12
I52
sg13
g14
(S'\x07\xc8\t\x16\x00\x00\x00\x00\x00\x00'
p4647
tp4648
Rp4649
sg18
VDemouchette
p4650
sg20
S'http://www.tdcj.state.tx.us/death_row/dr_info/no_last_statement.html'
p4651
sa(dp4652
g2
VCurtis
p4653
sg4
S'http://www.tdcj.state.tx.us/death_row/dr_info/no_info_available.html'
p4654
sg6
I761
sg7
I38
sg8
VHarris
p4655
sg10
VBlack
p4656
sg12
I51
sg13
g14
(S'\x07\xc8\x08\x0b\x00\x00\x00\x00\x00\x00'
p4657
tp4658
Rp4659
sg18
VJohnson
p4660
sg20
S'http://www.tdcj.state.tx.us/death_row/dr_info/no_last_statement.html'
p4661
sa(dp4662
g2
VRobert
p4663
sg4
S'http://www.tdcj.state.tx.us/death_row/dr_info/no_info_available.html'
p4664
sg6
I819
sg7
I45
sg8
VBrazos
p4665
sg10
VWhite
p4666
sg12
I50
sg13
g14
(S'\x07\xc8\x05\x16\x00\x00\x00\x00\x00\x00'
p4667
tp4668
Rp4669
sg18
VBlack, Jr.
p4670
sg20
S'http://www.tdcj.state.tx.us/death_row/dr_info/blackrobertlast.html'
p4671
sa(dp4672
g2
VJesus
p4673
sg4
S'http://www.tdcj.state.tx.us/death_row/dr_info/romerojesus.jpg'
p4674
sg6
I801
sg7
I27
sg8
VCameron
p4675
sg10
VHispanic
p4676
sg12
I49
sg13
g14
(S'\x07\xc8\x05\x14\x00\x00\x00\x00\x00\x00'
p4677
tp4678
Rp4679
sg18
VRomero, Jr.
p4680
sg20
S'http://www.tdcj.state.tx.us/death_row/dr_info/romerojesuslast.html'
p4681
sa(dp4682
g2
VJustin
p4683
sg4
S'http://www.tdcj.state.tx.us/death_row/dr_info/mayjustin.jpg'
p4684
sg6
I783
sg7
I46
sg8
VBrazoria
p4685
sg10
VWhite
p4686
sg12
I48
sg13
g14
(S'\x07\xc8\x05\x07\x00\x00\x00\x00\x00\x00'
p4687
tp4688
Rp4689
sg18
VMay
p4690
sg20
S'http://www.tdcj.state.tx.us/death_row/dr_info/mayjustinlast.html'
p4691
sa(dp4692
g2
VBilly
p4693
sg4
S'http://www.tdcj.state.tx.us/death_row/dr_info/whitebilly.jpg'
p4694
sg6
I585
sg7
I34
sg8
VHarris
p4695
sg10
VBlack
p4696
sg12
I47
sg13
g14
(S'\x07\xc8\x04\x17\x00\x00\x00\x00\x00\x00'
p4697
tp4698
Rp4699
sg18
VWhite
p4700
sg20
S'http://www.tdcj.state.tx.us/death_row/dr_info/no_last_statement.html'
p4701
sa(dp4702
g2
VEdward
p4703
sg4
S'http://www.tdcj.state.tx.us/death_row/dr_info/ellisedward.jpg'
p4704
sg6
I749
sg7
I38
sg8
VHarris
p4705
sg10
VWhite
p4706
sg12
I46
sg13
g14
(S'\x07\xc8\x03\x03\x00\x00\x00\x00\x00\x00'
p4707
tp4708
Rp4709
sg18
VEllis
p4710
sg20
S'http://www.tdcj.state.tx.us/death_row/dr_info/ellisedwardlast.html'
p4711
sa(dp4712
g2
VDavid
p4713
sg4
S'http://www.tdcj.state.tx.us/death_row/dr_info/clarkdavid.jpg'
p4714
sg6
I874
sg7
I32
sg8
VBrazos
p4715
sg10
VWhite
p4716
sg12
I45
sg13
g14
(S'\x07\xc8\x02\x1c\x00\x00\x00\x00\x00\x00'
p4717
tp4718
Rp4719
sg18
VClark
p4720
sg20
S'http://www.tdcj.state.tx.us/death_row/dr_info/clarkdavidlast.html'
p4721
sa(dp4722
g2
VJohnny
p4723
sg4
S'http://www.tdcj.state.tx.us/death_row/dr_info/garrettjohnny.jpg'
p4724
sg6
I729
sg7
I28
sg8
VPotter
p4725
sg10
VWhite
p4726
sg12
I44
sg13
g14
(S'\x07\xc8\x02\x0b\x00\x00\x00\x00\x00\x00'
p4727
tp4728
Rp4729
sg18
VGarrett
p4730
sg20
S'http://www.tdcj.state.tx.us/death_row/dr_info/no_last_statement.html'
p4731
sa(dp4732
g2
VJoe
p4733
sg4
S'http://www.tdcj.state.tx.us/death_row/dr_info/no_info_available.html'
p4734
sg6
I730
sg7
I39
sg8
VHarris
p4735
sg10
VHispanic
p4736
sg12
I43
sg13
g14
(S'\x07\xc8\x01\x16\x00\x00\x00\x00\x00\x00'
p4737
tp4738
Rp4739
sg18
VCordova
p4740
sg20
S'http://www.tdcj.state.tx.us/death_row/dr_info/no_last_statement.html'
p4741
sa(dp4742
g2
VG.W.
p4743
sg4
S'http://www.tdcj.state.tx.us/death_row/dr_info/greengw.jpg'
p4744
sg6
I576
sg7
I49
sg8
VMontgomery
p4745
sg10
VWhite
p4746
sg12
I42
sg13
g14
(S'\x07\xc7\x0b\x0c\x00\x00\x00\x00\x00\x00'
p4747
tp4748
Rp4749
sg18
VGreen
p4750
sg20
S'http://www.tdcj.state.tx.us/death_row/dr_info/greengwlast.html'
p4751
sa(dp4752
g2
VJames
p4753
sg4
S'http://www.tdcj.state.tx.us/death_row/dr_info/russelljames.jpg'
p4754
sg6
I579
sg7
I42
sg8
VFort Bend
p4755
sg10
VBlack
p4756
sg12
I41
sg13
g14
(S'\x07\xc7\t\x13\x00\x00\x00\x00\x00\x00'
p4757
tp4758
Rp4759
sg18
VRussell
p4760
sg20
S'http://www.tdcj.state.tx.us/death_row/dr_info/russelljameslast.html'
p4761
sa(dp4762
g2
VJerry
p4763
sg4
S'http://www.tdcj.state.tx.us/death_row/dr_info/no_info_available.html'
p4764
sg6
I512
sg7
I54
sg8
VCameron
p4765
sg10
VWhite
p4766
sg12
I40
sg13
g14
(S'\x07\xc7\x06\x11\x00\x00\x00\x00\x00\x00'
p4767
tp4768
Rp4769
sg18
VBird
p4770
sg20
S'http://www.tdcj.state.tx.us/death_row/dr_info/birdjerrylast.html'
p4771
sa(dp4772
g2
VIgnacio
p4773
sg4
S'http://www.tdcj.state.tx.us/death_row/dr_info/cuevasignacio.jpg'
p4774
sg6
I526
sg7
I59
sg8
VHarris
p4775
sg10
VHispanic
p4776
sg12
I39
sg13
g14
(S'\x07\xc7\x05\x17\x00\x00\x00\x00\x00\x00'
p4777
tp4778
Rp4779
sg18
VCuevas
p4780
sg20
S'http://www.tdcj.state.tx.us/death_row/dr_info/cuevasignaciolast.html'
p4781
sa(dp4782
g2
VLawrence
p4783
sg4
S'http://www.tdcj.state.tx.us/death_row/dr_info/buxtonlawrence.jpg'
p4784
sg6
I743
sg7
I38
sg8
VHarris
p4785
sg10
VBlack
p4786
sg12
I38
sg13
g14
(S'\x07\xc7\x02\x1a\x00\x00\x00\x00\x00\x00'
p4787
tp4788
Rp4789
sg18
VBuxton
p4790
sg20
S'http://www.tdcj.state.tx.us/death_row/dr_info/buxtonlawrencelast.html'
p4791
sa(dp4792
g2
VMikel
p4793
sg4
S'http://www.tdcj.state.tx.us/death_row/dr_info/derrickmikel.jpg'
p4794
sg6
I701
sg7
I33
sg8
VHarris
p4795
sg10
VWhite
p4796
sg12
I37
sg13
g14
(S'\x07\xc6\x07\x12\x00\x00\x00\x00\x00\x00'
p4797
tp4798
Rp4799
sg18
VDerrick
p4800
sg20
S'http://www.tdcj.state.tx.us/death_row/dr_info/derrickmikellast.html'
p4801
sa(dp4802
g2
VJames
p4803
sg4
S'http://www.tdcj.state.tx.us/death_row/dr_info/smithjames.jpg'
p4804
sg6
I763
sg7
I37
sg8
VHarris
p4805
sg10
VBlack
p4806
sg12
I36
sg13
g14
(S'\x07\xc6\x06\x1a\x00\x00\x00\x00\x00\x00'
p4807
tp4808
Rp4809
sg18
VSmith
p4810
sg20
S'http://www.tdcj.state.tx.us/death_row/dr_info/no_last_statement.html'
p4811
sa(dp4812
g2
VJohnny
p4813
sg4
S'http://www.tdcj.state.tx.us/death_row/dr_info/andersonjohnny.jpg'
p4814
sg6
I732
sg7
I30
sg8
VJefferson
p4815
sg10
VWhite
p4816
sg12
I35
sg13
g14
(S'\x07\xc6\x05\x11\x00\x00\x00\x00\x00\x00'
p4817
tp4818
Rp4819
sg18
VAnderson
p4820
sg20
S'http://www.tdcj.state.tx.us/death_row/dr_info/andersonjohnnylast.html'
p4821
sa(dp4822
g2
VJerome
p4823
sg4
S'http://www.tdcj.state.tx.us/death_row/dr_info/butlerjerome.jpg'
p4824
sg6
I852
sg7
I54
sg8
VHarris
p4825
sg10
VBlack
p4826
sg12
I34
sg13
g14
(S'\x07\xc6\x04\x15\x00\x00\x00\x00\x00\x00'
p4827
tp4828
Rp4829
sg18
VButler
p4830
sg20
S'http://www.tdcj.state.tx.us/death_row/dr_info/butlerjeromelast.html'
p4831
sa(dp4832
g2
VCarlos
p4833
sg4
S'http://www.tdcj.state.tx.us/death_row/dr_info/delunacarlos.jpg'
p4834
sg6
I744
sg7
I27
sg8
VNueces
p4835
sg10
VHispanic
p4836
sg12
I33
sg13
g14
(S'\x07\xc5\x0c\x07\x00\x00\x00\x00\x00\x00'
p4837
tp4838
Rp4839
sg18
VDe Luna
p4840
sg20
S'http://www.tdcj.state.tx.us/death_row/dr_info/delunacarloslast.html'
p4841
sa(dp4842
g2
VJames
p4843
sg4
S'http://www.tdcj.state.tx.us/death_row/dr_info/pasterjames.jpg'
p4844
sg6
I752
sg7
I44
sg8
VHarris
p4845
sg10
VWhite
p4846
sg12
I32
sg13
g14
(S'\x07\xc5\t\x14\x00\x00\x00\x00\x00\x00'
p4847
tp4848
Rp4849
sg18
VPaster
p4850
sg20
S'http://www.tdcj.state.tx.us/death_row/dr_info/pasterjameslast.html'
p4851
sa(dp4852
g2
VStephen
p4853
sg4
S'http://www.tdcj.state.tx.us/death_row/dr_info/mccoystephen.jpg'
p4854
sg6
I769
sg7
I40
sg8
VHarris
p4855
sg10
VWhite
p4856
sg12
I31
sg13
g14
(S'\x07\xc5\x05\x18\x00\x00\x00\x00\x00\x00'
p4857
tp4858
Rp4859
sg18
VMcCoy
p4860
sg20
S'http://www.tdcj.state.tx.us/death_row/dr_info/no_last_statement.html'
p4861
sa(dp4862
g2
VLeon
p4863
sg4
S'http://www.tdcj.state.tx.us/death_row/dr_info/kingleon.jpg'
p4864
sg6
I624
sg7
I44
sg8
VHarris
p4865
sg10
VBlack
p4866
sg12
I30
sg13
g14
(S'\x07\xc5\x03\x16\x00\x00\x00\x00\x00\x00'
p4867
tp4868
Rp4869
sg18
VKing
p4870
sg20
S'http://www.tdcj.state.tx.us/death_row/dr_info/kingleonlast.html'
p4871
sa(dp4872
g2
VRaymond
p4873
sg4
S'http://www.tdcj.state.tx.us/death_row/dr_info/landryraymond.jpg'
p4874
sg6
I738
sg7
I39
sg8
VHarris
p4875
sg10
VBlack
p4876
sg12
I29
sg13
g14
(S'\x07\xc4\x0c\r\x00\x00\x00\x00\x00\x00'
p4877
tp4878
Rp4879
sg18
VLandry, Sr.
p4880
sg20
S'http://www.tdcj.state.tx.us/death_row/dr_info/no_last_statement.html'
p4881
sa(dp4882
g2
VDonald
p4883
sg4
S'http://www.tdcj.state.tx.us/death_row/dr_info/franklindonald.jpg'
p4884
sg6
I546
sg7
I37
sg8
VNueces
p4885
sg10
VBlack
p4886
sg12
I28
sg13
g14
(S'\x07\xc4\x0b\x03\x00\x00\x00\x00\x00\x00'
p4887
tp4888
Rp4889
sg18
VFranklin
p4890
sg20
S'http://www.tdcj.state.tx.us/death_row/dr_info/no_last_statement.html'
p4891
sa(dp4892
g2
VRobert
p4893
sg4
S'http://www.tdcj.state.tx.us/death_row/dr_info/streetmanrobert.jpg'
p4894
sg6
I746
sg7
I27
sg8
VHardin
p4895
sg10
VWhite
p4896
sg12
I27
sg13
g14
(S'\x07\xc4\x01\x07\x00\x00\x00\x00\x00\x00'
p4897
tp4898
Rp4899
sg18
VStreetman
p4900
sg20
S'http://www.tdcj.state.tx.us/death_row/dr_info/no_last_statement.html'
p4901
sa(dp4902
g2
VJoseph
p4903
sg4
S'http://www.tdcj.state.tx.us/death_row/dr_info/starvaggijoseph.jpg'
p4904
sg6
I586
sg7
I34
sg8
VMontgomery
p4905
sg10
VWhite
p4906
sg12
I26
sg13
g14
(S'\x07\xc3\t\n\x00\x00\x00\x00\x00\x00'
p4907
tp4908
Rp4909
sg18
VStarvaggi
p4910
sg20
S'http://www.tdcj.state.tx.us/death_row/dr_info/no_last_statement.html'
p4911
sa(dp4912
g2
VJohn
p4913
sg4
S'http://www.tdcj.state.tx.us/death_row/dr_info/thompsonjohn.jpg'
p4914
sg6
I610
sg7
I32
sg8
VBexar
p4915
sg10
VWhite
p4916
sg12
I25
sg13
g14
(S'\x07\xc3\x07\x08\x00\x00\x00\x00\x00\x00'
p4917
tp4918
Rp4919
sg18
VThompson
p4920
sg20
S'http://www.tdcj.state.tx.us/death_row/dr_info/no_last_statement.html'
p4921
sa(dp4922
g2
VElliot
p4923
sg4
S'http://www.tdcj.state.tx.us/death_row/dr_info/no_info_available.html'
p4924
sg6
I739
sg7
I38
sg8
VJefferson
p4925
sg10
VBlack
p4926
sg12
I24
sg13
g14
(S'\x07\xc3\x06\x18\x00\x00\x00\x00\x00\x00'
p4927
tp4928
Rp4929
sg18
VJohnson
p4930
sg20
S'http://www.tdcj.state.tx.us/death_row/dr_info/no_last_statement.html'
p4931
sa(dp4932
g2
VAnthony
p4933
sg4
S'http://www.tdcj.state.tx.us/death_row/dr_info/williamsanthony.jpg'
p4934
sg6
I619
sg7
I27
sg8
VHarris
p4935
sg10
VBlack
p4936
sg12
I23
sg13
g14
(S'\x07\xc3\x05\x1c\x00\x00\x00\x00\x00\x00'
p4937
tp4938
Rp4939
sg18
VWilliams
p4940
sg20
S'http://www.tdcj.state.tx.us/death_row/dr_info/williamsanthonylast.html'
p4941
sa(dp4942
g2
VEliseo
p4943
sg4
S'http://www.tdcj.state.tx.us/death_row/dr_info/morenoeliseo.jpg'
p4944
sg6
I759
sg7
I27
sg8
VFort Bend
p4945
sg10
VHispanic
p4946
sg12
I22
sg13
g14
(S'\x07\xc3\x03\x04\x00\x00\x00\x00\x00\x00'
p4947
tp4948
Rp4949
sg18
VMoreno
p4950
sg20
S'http://www.tdcj.state.tx.us/death_row/dr_info/no_last_statement.html'
p4951
sa(dp4952
g2
VRamon
p4953
sg4
S'http://www.tdcj.state.tx.us/death_row/dr_info/hernandezramonpedro667.html'
p4954
sg6
I667
sg7
I44
sg8
VEl Paso
p4955
sg10
VHispanic
p4956
sg12
I21
sg13
g14
(S'\x07\xc3\x01\x1e\x00\x00\x00\x00\x00\x00'
p4957
tp4958
Rp4959
sg18
VHernandez
p4960
sg20
S'http://www.tdcj.state.tx.us/death_row/dr_info/no_last_statement.html'
p4961
sa(dp4962
g2
VRichard
p4963
sg4
S'http://www.tdcj.state.tx.us/death_row/dr_info/no_info_available.html'
p4964
sg6
I774
sg7
I25
sg8
VNueces
p4965
sg10
VHispanic
p4966
sg12
I20
sg13
g14
(S'\x07\xc2\x0c\x12\x00\x00\x00\x00\x00\x00'
p4967
tp4968
Rp4969
sg18
VAndrade
p4970
sg20
S'http://www.tdcj.state.tx.us/death_row/dr_info/no_last_statement.html'
p4971
sa(dp4972
g2
VMichael
p4973
sg4
S'http://www.tdcj.state.tx.us/death_row/dr_info/evansmichael.jpg'
p4974
sg6
I608
sg7
I30
sg8
VDallas
p4975
sg10
VBlack
p4976
sg12
I19
sg13
g14
(S'\x07\xc2\x0c\x04\x00\x00\x00\x00\x00\x00'
p4977
tp4978
Rp4979
sg18
VEvans
p4980
sg20
S'http://www.tdcj.state.tx.us/death_row/dr_info/evansmichaellast.html'
p4981
sa(dp4982
g2
VChester
p4983
sg4
S'http://www.tdcj.state.tx.us/death_row/dr_info/no_info_available.html'
p4984
sg6
I678
sg7
I37
sg8
VGalveston
p4985
sg10
VWhite
p4986
sg12
I18
sg13
g14
(S'\x07\xc2\x08\x1a\x00\x00\x00\x00\x00\x00'
p4987
tp4988
Rp4989
sg18
VWicker
p4990
sg20
S'http://www.tdcj.state.tx.us/death_row/dr_info/no_last_statement.html'
p4991
sa(dp4992
g2
VLarry
p4993
sg4
S'http://www.tdcj.state.tx.us/death_row/dr_info/smithlarry.jpg'
p4994
sg6
I643
sg7
I30
sg8
VDallas
p4995
sg10
VBlack
p4996
sg12
I17
sg13
g14
(S'\x07\xc2\x08\x16\x00\x00\x00\x00\x00\x00'
p4997
tp4998
Rp4999
sg18
VSmith
p5000
sg20
S'http://www.tdcj.state.tx.us/death_row/dr_info/smithlarrylast.html'
p5001
sa(dp5002
g2
VRandy
p5003
sg4
S'http://www.tdcj.state.tx.us/death_row/dr_info/woollsrandy.jpg'
p5004
sg6
I646
sg7
I36
sg8
VTom Green
p5005
sg10
VWhite
p5006
sg12
I16
sg13
g14
(S'\x07\xc2\x08\x14\x00\x00\x00\x00\x00\x00'
p5007
tp5008
Rp5009
sg18
VWoolls
p5010
sg20
S'http://www.tdcj.state.tx.us/death_row/dr_info/woollsrandylast.html'
p5011
sa(dp5012
g2
VKenneth
p5013
sg4
S'http://www.tdcj.state.tx.us/death_row/dr_info/no_info_available.html'
p5014
sg6
I522
sg7
I37
sg8
VHarris
p5015
sg10
VWhite
p5016
sg12
I15
sg13
g14
(S'\x07\xc2\x06\x13\x00\x00\x00\x00\x00\x00'
p5017
tp5018
Rp5019
sg18
VBrock
p5020
sg20
S'http://www.tdcj.state.tx.us/death_row/dr_info/brockkennethlast.html'
p5021
sa(dp5022
g2
VRudy
p5023
sg4
S'http://www.tdcj.state.tx.us/death_row/dr_info/no_info_available.html'
p5024
sg6
I606
sg7
I50
sg8
VHarris
p5025
sg10
VHispanic
p5026
sg12
I14
sg13
g14
(S'\x07\xc2\x06\t\x00\x00\x00\x00\x00\x00'
p5027
tp5028
Rp5029
sg18
VEsquivel
p5030
sg20
S'http://www.tdcj.state.tx.us/death_row/dr_info/esquivelrudylast.html'
p5031
sa(dp5032
g2
VJay
p5033
sg4
S'http://www.tdcj.state.tx.us/death_row/dr_info/pinkertonjay.jpg'
p5034
sg6
I686
sg7
I24
sg8
VNueces
p5035
sg10
VWhite
p5036
sg12
I13
sg13
g14
(S'\x07\xc2\x05\x0f\x00\x00\x00\x00\x00\x00'
p5037
tp5038
Rp5039
sg18
VPinkerton
p5040
sg20
S'http://www.tdcj.state.tx.us/death_row/dr_info/pinkertonjaylast.html'
p5041
sa(dp5042
g2
VJeffery
p5043
sg4
S'http://www.tdcj.state.tx.us/death_row/dr_info/barneyjeffery.jpg'
p5044
sg6
I714
sg7
I28
sg8
VHarris
p5045
sg10
VWhite
p5046
sg12
I12
sg13
g14
(S'\x07\xc2\x04\x10\x00\x00\x00\x00\x00\x00'
p5047
tp5048
Rp5049
sg18
VBarney
p5050
sg20
S'http://www.tdcj.state.tx.us/death_row/dr_info/no_last_statement.html'
p5051
sa(dp5052
g2
VCharles
p5053
sg4
S'http://www.tdcj.state.tx.us/death_row/dr_info/basscharles.jpg'
p5054
sg6
I662
sg7
I30
sg8
VHarris
p5055
sg10
VWhite
p5056
sg12
I11
sg13
g14
(S'\x07\xc2\x03\x0c\x00\x00\x00\x00\x00\x00'
p5057
tp5058
Rp5059
sg18
VBass
p5060
sg20
S'http://www.tdcj.state.tx.us/death_row/dr_info/basscharleslast.html'
p5061
sa(dp5062
g2
VCharles
p5063
sg4
S'http://www.tdcj.state.tx.us/death_row/dr_info/rumbaugh.jpg'
p5064
sg6
I555
sg7
I28
sg8
VPotter
p5065
sg10
VWhite
p5066
sg12
I10
sg13
g14
(S'\x07\xc1\t\x0b\x00\x00\x00\x00\x00\x00'
p5067
tp5068
Rp5069
sg18
VRumbaugh
p5070
sg20
S'http://www.tdcj.state.tx.us/death_row/dr_info/rumbaughcharleslast.html'
p5071
sa(dp5072
g2
VHenry
p5073
sg4
S'http://www.tdcj.state.tx.us/death_row/dr_info/porterhenry.jpg'
p5074
sg6
I551
sg7
I43
sg8
VTarrant
p5075
sg10
VHispanic
p5076
sg12
I9
sg13
g14
(S'\x07\xc1\x07\t\x00\x00\x00\x00\x00\x00'
p5077
tp5078
Rp5079
sg18
VPorter
p5080
sg20
S'http://www.tdcj.state.tx.us/death_row/dr_info/porterhenrylast.html'
p5081
sa(dp5082
g2
VCharles
p5083
sg4
S'http://www.tdcj.state.tx.us/death_row/dr_info/miltoncharles.jpg'
p5084
sg6
I628
sg7
I34
sg8
VTarrant
p5085
sg10
VBlack
p5086
sg12
I8
sg13
g14
(S'\x07\xc1\x06\x19\x00\x00\x00\x00\x00\x00'
p5087
tp5088
Rp5089
sg18
VMilton
p5090
sg20
S'http://www.tdcj.state.tx.us/death_row/dr_info/miltoncharleslast.html'
p5091
sa(dp5092
g2
VJesse
p5093
sg4
S'http://www.tdcj.state.tx.us/death_row/dr_info/delarosajesse.jpg'
p5094
sg6
I713
sg7
I24
sg8
VBexar
p5095
sg10
VHispanic
p5096
sg12
I7
sg13
g14
(S'\x07\xc1\x05\x0f\x00\x00\x00\x00\x00\x00'
p5097
tp5098
Rp5099
sg18
VDe La Rosa
p5100
sg20
S'http://www.tdcj.state.tx.us/death_row/dr_info/no_last_statement.html'
p5101
sa(dp5102
g2
VStephen
p5103
sg4
S'http://www.tdcj.state.tx.us/death_row/dr_info/morinstephen.jpg'
p5104
sg6
I712
sg7
I34
sg8
VJefferson
p5105
sg10
VWhite
p5106
sg12
I6
sg13
g14
(S'\x07\xc1\x03\r\x00\x00\x00\x00\x00\x00'
p5107
tp5108
Rp5109
sg18
VMorin
p5110
sg20
S'http://www.tdcj.state.tx.us/death_row/dr_info/morinstephenlast.html'
p5111
sa(dp5112
g2
VDoyle
p5113
sg4
S'http://www.tdcj.state.tx.us/death_row/dr_info/skillerndoyle.jpg'
p5114
sg6
I518
sg7
I49
sg8
VLubbock
p5115
sg10
VWhite
p5116
sg12
I5
sg13
g14
(S'\x07\xc1\x01\x10\x00\x00\x00\x00\x00\x00'
p5117
tp5118
Rp5119
sg18
VSkillern
p5120
sg20
S'http://www.tdcj.state.tx.us/death_row/dr_info/skillerndoylelast.html'
p5121
sa(dp5122
g2
VThomas
p5123
sg4
S'http://www.tdcj.state.tx.us/death_row/dr_info/barefootthomas.jpg'
p5124
sg6
I621
sg7
I39
sg8
VBell
p5125
sg10
VWhite
p5126
sg12
I4
sg13
g14
(S'\x07\xc0\n\x1e\x00\x00\x00\x00\x00\x00'
p5127
tp5128
Rp5129
sg18
VBarefoot
p5130
sg20
S'http://www.tdcj.state.tx.us/death_row/dr_info/barefootthomaslast.html'
p5131
sa(dp5132
g2
VRonald
p5133
sg4
S'http://www.tdcj.state.tx.us/death_row/dr_info/obryanronald.jpg'
p5134
sg6
I529
sg7
I39
sg8
VHarris
p5135
sg10
VWhite
p5136
sg12
I3
sg13
g14
(S'\x07\xc0\x03\x1f\x00\x00\x00\x00\x00\x00'
p5137
tp5138
Rp5139
sg18
VO'Bryan
p5140
sg20
S'http://www.tdcj.state.tx.us/death_row/dr_info/obryanronaldlast.html'
p5141
sa(dp5142
g2
VJames
p5143
sg4
S'http://www.tdcj.state.tx.us/death_row/dr_info/autryjames.html'
p5144
sg6
I670
sg7
I29
sg8
VJefferson
p5145
sg10
VWhite
p5146
sg12
I2
sg13
g14
(S'\x07\xc0\x03\x0e\x00\x00\x00\x00\x00\x00'
p5147
tp5148
Rp5149
sg18
VAutry
p5150
sg20
S'http://www.tdcj.state.tx.us/death_row/dr_info/no_last_statement.html'
p5151
sa(dp5152
g2
VCharlie
p5153
sg4
S'http://www.tdcj.state.tx.us/death_row/dr_info/brookscharlie.html'
p5154
sg6
I592
sg7
I40
sg8
VTarrant
p5155
sg10
VBlack
p5156
sg12
I1
sg13
g14
(S'\x07\xbe\x0c\x07\x00\x00\x00\x00\x00\x00'
p5157
tp5158
Rp5159
sg18
VBrooks, Jr.
p5160
sg20
S'http://www.tdcj.state.tx.us/death_row/dr_info/brookscharlielast.html'
p5161
sa.